ARM GAS  C:\Users\Admin\AppData\Local\Temp\ccOfIyoO.s 			page 1


   1              		.cpu cortex-m3
   2              		.arch armv7-m
   3              		.fpu softvfp
   4              		.eabi_attribute 20, 1
   5              		.eabi_attribute 21, 1
   6              		.eabi_attribute 23, 3
   7              		.eabi_attribute 24, 1
   8              		.eabi_attribute 25, 1
   9              		.eabi_attribute 26, 1
  10              		.eabi_attribute 30, 1
  11              		.eabi_attribute 34, 1
  12              		.eabi_attribute 18, 4
  13              		.file	"main.c"
  14              		.section	.rodata.str1.4,"aMS",%progbits,1
  15              		.align	2
  16              	.LC0:
  17 0000 5461736B 		.ascii	"Task1\000"
  17      3100
  18 0006 0000     		.align	2
  19              	.LC2:
  20 0008 5461736B 		.ascii	"Task2\000"
  20      3200
  21 000e 0000     		.align	2
  22              	.LC4:
  23 0010 5461736B 		.ascii	"Task3\000"
  23      3300
  24 0016 0000     		.align	2
  25              	.LC6:
  26 0018 5461736B 		.ascii	"Task4\000"
  26      3400
  27              		.text
  28              	.Ltext0:
  29              		.cfi_sections	.debug_frame
  30              		.section	.text.MX_GPIO_Init,"ax",%progbits
  31              		.align	1
  32              		.syntax unified
  33              		.thumb
  34              		.thumb_func
  36              	MX_GPIO_Init:
  37              	.LFB81:
  38              		.file 1 "Core/Src/main.c"
   1:Core/Src/main.c **** /* USER CODE BEGIN Header */
   2:Core/Src/main.c **** /**
   3:Core/Src/main.c ****  ******************************************************************************
   4:Core/Src/main.c ****  * @file           : main.c
   5:Core/Src/main.c ****  * @brief          : Main program body
   6:Core/Src/main.c ****  ******************************************************************************
   7:Core/Src/main.c ****  * @attention
   8:Core/Src/main.c ****  *
   9:Core/Src/main.c ****  * Copyright (c) 2023 STMicroelectronics.
  10:Core/Src/main.c ****  * All rights reserved.
  11:Core/Src/main.c ****  *
  12:Core/Src/main.c ****  * This software is licensed under terms that can be found in the LICENSE file
  13:Core/Src/main.c ****  * in the root directory of this software component.
  14:Core/Src/main.c ****  * If no LICENSE file comes with this software, it is provided AS-IS.
  15:Core/Src/main.c ****  *
  16:Core/Src/main.c ****  ******************************************************************************
ARM GAS  C:\Users\Admin\AppData\Local\Temp\ccOfIyoO.s 			page 2


  17:Core/Src/main.c ****  */
  18:Core/Src/main.c **** /* USER CODE END Header */
  19:Core/Src/main.c **** /* Includes ------------------------------------------------------------------*/
  20:Core/Src/main.c **** #include "main.h"
  21:Core/Src/main.c **** #include "cmsis_os.h"
  22:Core/Src/main.c **** 
  23:Core/Src/main.c **** /* Private includes ----------------------------------------------------------*/
  24:Core/Src/main.c **** /* USER CODE BEGIN Includes */
  25:Core/Src/main.c **** #include "string.h"
  26:Core/Src/main.c **** #include "stdio.h"
  27:Core/Src/main.c **** #include "stdlib.h"
  28:Core/Src/main.c **** #include "math.h"
  29:Core/Src/main.c **** #include "st7735.h"
  30:Core/Src/main.c **** #include "dht22.h"
  31:Core/Src/main.c **** /* USER CODE END Includes */
  32:Core/Src/main.c **** 
  33:Core/Src/main.c **** /* Private typedef -----------------------------------------------------------*/
  34:Core/Src/main.c **** /* USER CODE BEGIN PTD */
  35:Core/Src/main.c **** 
  36:Core/Src/main.c **** /* USER CODE END PTD */
  37:Core/Src/main.c **** 
  38:Core/Src/main.c **** /* Private define ------------------------------------------------------------*/
  39:Core/Src/main.c **** /* USER CODE BEGIN PD */
  40:Core/Src/main.c **** /* USER CODE END PD */
  41:Core/Src/main.c **** 
  42:Core/Src/main.c **** /* Private macro -------------------------------------------------------------*/
  43:Core/Src/main.c **** /* USER CODE BEGIN PM */
  44:Core/Src/main.c **** 
  45:Core/Src/main.c **** /* USER CODE END PM */
  46:Core/Src/main.c **** 
  47:Core/Src/main.c **** /* Private variables ---------------------------------------------------------*/
  48:Core/Src/main.c ****  SPI_HandleTypeDef hspi2;
  49:Core/Src/main.c **** 
  50:Core/Src/main.c **** TIM_HandleTypeDef htim2;
  51:Core/Src/main.c **** TIM_HandleTypeDef htim3;
  52:Core/Src/main.c **** 
  53:Core/Src/main.c **** UART_HandleTypeDef huart3;
  54:Core/Src/main.c **** 
  55:Core/Src/main.c **** osThreadId Task1Handle;
  56:Core/Src/main.c **** osThreadId Task2Handle;
  57:Core/Src/main.c **** osThreadId Task3Handle;
  58:Core/Src/main.c **** osThreadId Task4Handle;
  59:Core/Src/main.c **** osSemaphoreId SensorSemHandle;
  60:Core/Src/main.c **** osSemaphoreId ServoSemHandle;
  61:Core/Src/main.c **** osSemaphoreId DataSemHandle;
  62:Core/Src/main.c **** osSemaphoreId IRQSemHandle;
  63:Core/Src/main.c **** /* USER CODE BEGIN PV */
  64:Core/Src/main.c **** enum
  65:Core/Src/main.c **** {
  66:Core/Src/main.c ****   Mode_auto,
  67:Core/Src/main.c ****   Mode_manual
  68:Core/Src/main.c **** };
  69:Core/Src/main.c **** volatile int Mode = Mode_auto;
  70:Core/Src/main.c **** 
  71:Core/Src/main.c **** uint8_t Rx_data;
  72:Core/Src/main.c **** char buffer_data[50] = {0};
  73:Core/Src/main.c **** volatile int Rx_index = 0;
ARM GAS  C:\Users\Admin\AppData\Local\Temp\ccOfIyoO.s 			page 3


  74:Core/Src/main.c **** 
  75:Core/Src/main.c **** // example
  76:Core/Src/main.c **** int temp;
  77:Core/Src/main.c **** int humi;
  78:Core/Src/main.c **** 
  79:Core/Src/main.c **** char buf_sensor[20] = {0};
  80:Core/Src/main.c **** char buf_temp[20] = {0};
  81:Core/Src/main.c **** char buf_humi[20] = {0};
  82:Core/Src/main.c **** 
  83:Core/Src/main.c **** int count = 25;
  84:Core/Src/main.c **** char rota[20] = {0};
  85:Core/Src/main.c **** char threshold[20] = {0};
  86:Core/Src/main.c **** char label_thres[10] = {0};
  87:Core/Src/main.c **** char str_thres[5] = {0};
  88:Core/Src/main.c **** int angle;
  89:Core/Src/main.c **** 
  90:Core/Src/main.c **** int PC_rota;
  91:Core/Src/main.c **** float PC_threshold=30;
  92:Core/Src/main.c **** 
  93:Core/Src/main.c **** char thres_tring[] = "Thres: 30";
  94:Core/Src/main.c **** uint8_t RHI, RHD, TCI, TCD, SUM;
  95:Core/Src/main.c **** float tCelsius = 0;
  96:Core/Src/main.c **** float tFahrenheit = 0;
  97:Core/Src/main.c **** float RH = 0;
  98:Core/Src/main.c **** /* USER CODE END PV */
  99:Core/Src/main.c **** 
 100:Core/Src/main.c **** /* Private function prototypes -----------------------------------------------*/
 101:Core/Src/main.c **** void SystemClock_Config(void);
 102:Core/Src/main.c **** static void MX_GPIO_Init(void);
 103:Core/Src/main.c **** static void MX_USART3_UART_Init(void);
 104:Core/Src/main.c **** static void MX_SPI2_Init(void);
 105:Core/Src/main.c **** static void MX_TIM2_Init(void);
 106:Core/Src/main.c **** static void MX_TIM3_Init(void);
 107:Core/Src/main.c **** void Task_Sensor(void const * argument);
 108:Core/Src/main.c **** void Task_Servo(void const * argument);
 109:Core/Src/main.c **** void Task_Display(void const * argument);
 110:Core/Src/main.c **** void Task_Data(void const * argument);
 111:Core/Src/main.c **** 
 112:Core/Src/main.c **** /* USER CODE BEGIN PFP */
 113:Core/Src/main.c **** 
 114:Core/Src/main.c **** /* USER CODE END PFP */
 115:Core/Src/main.c **** 
 116:Core/Src/main.c **** /* Private user code ---------------------------------------------------------*/
 117:Core/Src/main.c **** /* USER CODE BEGIN 0 */
 118:Core/Src/main.c **** void log_data(char *buf)
 119:Core/Src/main.c **** {
 120:Core/Src/main.c ****   HAL_UART_Transmit(&huart3, (uint8_t *)buf, strlen(buf), 100);
 121:Core/Src/main.c **** }
 122:Core/Src/main.c **** 
 123:Core/Src/main.c **** void HAL_UART_RxCpltCallback(UART_HandleTypeDef *huart)
 124:Core/Src/main.c **** {
 125:Core/Src/main.c ****   if (huart == &huart3)
 126:Core/Src/main.c ****   {
 127:Core/Src/main.c ****     if (Rx_data == 13)
 128:Core/Src/main.c ****     {
 129:Core/Src/main.c ****       buffer_data[Rx_index] = '\0';
 130:Core/Src/main.c ****       Rx_index = 0;
ARM GAS  C:\Users\Admin\AppData\Local\Temp\ccOfIyoO.s 			page 4


 131:Core/Src/main.c ****       if (strcmp(buffer_data, "manual") == 0)
 132:Core/Src/main.c ****       {
 133:Core/Src/main.c ****         Mode = Mode_manual;
 134:Core/Src/main.c ****       }
 135:Core/Src/main.c ****       if (strcmp(buffer_data, "auto") == 0)
 136:Core/Src/main.c ****       {
 137:Core/Src/main.c ****         Mode = Mode_auto;
 138:Core/Src/main.c ****       }
 139:Core/Src/main.c ****       if (strncmp(buffer_data, "Rota", 4) == 0)
 140:Core/Src/main.c ****       {
 141:Core/Src/main.c ****         // Parse string
 142:Core/Src/main.c ****         sscanf(buffer_data, "%*[^0-9]%d", &PC_rota);
 143:Core/Src/main.c ****       }
 144:Core/Src/main.c ****       if (strncmp(buffer_data, "Threshold", strlen("Threshold")) == 0)
 145:Core/Src/main.c ****       {
 146:Core/Src/main.c ****         log_data("check data thresh\n");
 147:Core/Src/main.c ****         sscanf(buffer_data, "%s%s", label_thres, str_thres);
 148:Core/Src/main.c ****       }
 149:Core/Src/main.c ****       osSemaphoreRelease(IRQSemHandle);
 150:Core/Src/main.c ****     }
 151:Core/Src/main.c ****     else
 152:Core/Src/main.c ****     {
 153:Core/Src/main.c ****       buffer_data[Rx_index] = (char)Rx_data;
 154:Core/Src/main.c ****       Rx_index++;
 155:Core/Src/main.c ****       // log_data((char*)Rx_data);
 156:Core/Src/main.c ****     }
 157:Core/Src/main.c ****     HAL_UART_Receive_IT(&huart3, &Rx_data, 1);
 158:Core/Src/main.c ****   }
 159:Core/Src/main.c **** }
 160:Core/Src/main.c **** /* USER CODE END 0 */
 161:Core/Src/main.c **** 
 162:Core/Src/main.c **** /**
 163:Core/Src/main.c ****   * @brief  The application entry point.
 164:Core/Src/main.c ****   * @retval int
 165:Core/Src/main.c ****   */
 166:Core/Src/main.c **** int main(void)
 167:Core/Src/main.c **** {
 168:Core/Src/main.c ****   /* USER CODE BEGIN 1 */
 169:Core/Src/main.c **** 
 170:Core/Src/main.c ****   /* USER CODE END 1 */
 171:Core/Src/main.c **** 
 172:Core/Src/main.c ****   /* MCU Configuration--------------------------------------------------------*/
 173:Core/Src/main.c **** 
 174:Core/Src/main.c ****   /* Reset of all peripherals, Initializes the Flash interface and the Systick. */
 175:Core/Src/main.c ****   HAL_Init();
 176:Core/Src/main.c **** 
 177:Core/Src/main.c ****   /* USER CODE BEGIN Init */
 178:Core/Src/main.c **** 
 179:Core/Src/main.c ****   /* USER CODE END Init */
 180:Core/Src/main.c **** 
 181:Core/Src/main.c ****   /* Configure the system clock */
 182:Core/Src/main.c ****   SystemClock_Config();
 183:Core/Src/main.c **** 
 184:Core/Src/main.c ****   /* USER CODE BEGIN SysInit */
 185:Core/Src/main.c **** 
 186:Core/Src/main.c ****   /* USER CODE END SysInit */
 187:Core/Src/main.c **** 
ARM GAS  C:\Users\Admin\AppData\Local\Temp\ccOfIyoO.s 			page 5


 188:Core/Src/main.c ****   /* Initialize all configured peripherals */
 189:Core/Src/main.c ****   MX_GPIO_Init();
 190:Core/Src/main.c ****   MX_USART3_UART_Init();
 191:Core/Src/main.c ****   MX_SPI2_Init();
 192:Core/Src/main.c ****   MX_TIM2_Init();
 193:Core/Src/main.c ****   MX_TIM3_Init();
 194:Core/Src/main.c ****   /* USER CODE BEGIN 2 */
 195:Core/Src/main.c ****   HAL_UART_Receive_IT(&huart3, &Rx_data, 1);
 196:Core/Src/main.c ****   HAL_TIM_PWM_Start(&htim3, TIM_CHANNEL_1);
 197:Core/Src/main.c ****   ST7735_Init();
 198:Core/Src/main.c ****   HAL_TIM_Base_Start(&htim2);
 199:Core/Src/main.c ****   ST7735_FillScreen(ST7735_BLACK);
 200:Core/Src/main.c ****   ST7735_WriteString(25, 0, "Team 17", Font_11x18, ST7735_RED, ST7735_BLACK);
 201:Core/Src/main.c ****   ST7735_WriteString(0, 30, "Temp: ", Font_11x18, ST7735_RED, ST7735_BLACK);
 202:Core/Src/main.c ****   ST7735_WriteString(0, 3 * 10 * 2, "Humi: ", Font_11x18, ST7735_RED, ST7735_BLACK);
 203:Core/Src/main.c ****   ST7735_WriteString(0, 3 * 10 * 3, "Rota: ", Font_11x18, ST7735_GREEN, ST7735_BLACK);
 204:Core/Src/main.c ****   // sprintf(thres_tring,"Thresh: %.1f",PC_threshold);
 205:Core/Src/main.c ****   // strcat(thres_tring,"30");
 206:Core/Src/main.c ****   ST7735_WriteString(0, 3 * 10 * 4, thres_tring, Font_11x18, ST7735_GREEN, ST7735_BLACK);
 207:Core/Src/main.c ****   /* USER CODE END 2 */
 208:Core/Src/main.c **** 
 209:Core/Src/main.c ****   /* USER CODE BEGIN RTOS_MUTEX */
 210:Core/Src/main.c ****   /* add mutexes, ... */
 211:Core/Src/main.c ****   /* USER CODE END RTOS_MUTEX */
 212:Core/Src/main.c **** 
 213:Core/Src/main.c ****   /* Create the semaphores(s) */
 214:Core/Src/main.c ****   /* definition and creation of SensorSem */
 215:Core/Src/main.c ****   osSemaphoreDef(SensorSem);
 216:Core/Src/main.c ****   SensorSemHandle = osSemaphoreCreate(osSemaphore(SensorSem), 1);
 217:Core/Src/main.c **** 
 218:Core/Src/main.c ****   /* definition and creation of ServoSem */
 219:Core/Src/main.c ****   osSemaphoreDef(ServoSem);
 220:Core/Src/main.c ****   ServoSemHandle = osSemaphoreCreate(osSemaphore(ServoSem), 1);
 221:Core/Src/main.c **** 
 222:Core/Src/main.c ****   /* definition and creation of DataSem */
 223:Core/Src/main.c ****   osSemaphoreDef(DataSem);
 224:Core/Src/main.c ****   DataSemHandle = osSemaphoreCreate(osSemaphore(DataSem), 1);
 225:Core/Src/main.c **** 
 226:Core/Src/main.c ****   /* definition and creation of IRQSem */
 227:Core/Src/main.c ****   osSemaphoreDef(IRQSem);
 228:Core/Src/main.c ****   IRQSemHandle = osSemaphoreCreate(osSemaphore(IRQSem), 1);
 229:Core/Src/main.c **** 
 230:Core/Src/main.c ****   /* USER CODE BEGIN RTOS_SEMAPHORES */
 231:Core/Src/main.c ****   /* add semaphores, ... */
 232:Core/Src/main.c ****   /* USER CODE END RTOS_SEMAPHORES */
 233:Core/Src/main.c **** 
 234:Core/Src/main.c ****   /* USER CODE BEGIN RTOS_TIMERS */
 235:Core/Src/main.c ****   /* start timers, add new ones, ... */
 236:Core/Src/main.c ****   /* USER CODE END RTOS_TIMERS */
 237:Core/Src/main.c **** 
 238:Core/Src/main.c ****   /* USER CODE BEGIN RTOS_QUEUES */
 239:Core/Src/main.c ****   /* add queues, ... */
 240:Core/Src/main.c ****   /* USER CODE END RTOS_QUEUES */
 241:Core/Src/main.c **** 
 242:Core/Src/main.c ****   /* Create the thread(s) */
 243:Core/Src/main.c ****   /* definition and creation of Task1 */
 244:Core/Src/main.c ****   osThreadDef(Task1, Task_Sensor, osPriorityHigh, 0, 128);
ARM GAS  C:\Users\Admin\AppData\Local\Temp\ccOfIyoO.s 			page 6


 245:Core/Src/main.c ****   Task1Handle = osThreadCreate(osThread(Task1), NULL);
 246:Core/Src/main.c **** 
 247:Core/Src/main.c ****   /* definition and creation of Task2 */
 248:Core/Src/main.c ****   osThreadDef(Task2, Task_Servo, osPriorityAboveNormal, 0, 128);
 249:Core/Src/main.c ****   Task2Handle = osThreadCreate(osThread(Task2), NULL);
 250:Core/Src/main.c **** 
 251:Core/Src/main.c ****   /* definition and creation of Task3 */
 252:Core/Src/main.c ****   osThreadDef(Task3, Task_Display, osPriorityNormal, 0, 128);
 253:Core/Src/main.c ****   Task3Handle = osThreadCreate(osThread(Task3), NULL);
 254:Core/Src/main.c **** 
 255:Core/Src/main.c ****   /* definition and creation of Task4 */
 256:Core/Src/main.c ****   osThreadDef(Task4, Task_Data, osPriorityBelowNormal, 0, 128);
 257:Core/Src/main.c ****   Task4Handle = osThreadCreate(osThread(Task4), NULL);
 258:Core/Src/main.c **** 
 259:Core/Src/main.c ****   /* USER CODE BEGIN RTOS_THREADS */
 260:Core/Src/main.c ****   /* add threads, ... */
 261:Core/Src/main.c ****   /* USER CODE END RTOS_THREADS */
 262:Core/Src/main.c **** 
 263:Core/Src/main.c ****   /* Start scheduler */
 264:Core/Src/main.c ****   osKernelStart();
 265:Core/Src/main.c **** 
 266:Core/Src/main.c ****   /* We should never get here as control is now taken by the scheduler */
 267:Core/Src/main.c ****   /* Infinite loop */
 268:Core/Src/main.c ****   /* USER CODE BEGIN WHILE */
 269:Core/Src/main.c ****   while (1)
 270:Core/Src/main.c ****   {
 271:Core/Src/main.c ****     /* USER CODE END WHILE */
 272:Core/Src/main.c **** 
 273:Core/Src/main.c ****     /* USER CODE BEGIN 3 */
 274:Core/Src/main.c ****   }
 275:Core/Src/main.c ****   /* USER CODE END 3 */
 276:Core/Src/main.c **** }
 277:Core/Src/main.c **** 
 278:Core/Src/main.c **** /**
 279:Core/Src/main.c ****   * @brief System Clock Configuration
 280:Core/Src/main.c ****   * @retval None
 281:Core/Src/main.c ****   */
 282:Core/Src/main.c **** void SystemClock_Config(void)
 283:Core/Src/main.c **** {
 284:Core/Src/main.c ****   RCC_OscInitTypeDef RCC_OscInitStruct = {0};
 285:Core/Src/main.c ****   RCC_ClkInitTypeDef RCC_ClkInitStruct = {0};
 286:Core/Src/main.c **** 
 287:Core/Src/main.c ****   /** Initializes the RCC Oscillators according to the specified parameters
 288:Core/Src/main.c ****   * in the RCC_OscInitTypeDef structure.
 289:Core/Src/main.c ****   */
 290:Core/Src/main.c ****   RCC_OscInitStruct.OscillatorType = RCC_OSCILLATORTYPE_HSE;
 291:Core/Src/main.c ****   RCC_OscInitStruct.HSEState = RCC_HSE_ON;
 292:Core/Src/main.c ****   RCC_OscInitStruct.HSEPredivValue = RCC_HSE_PREDIV_DIV1;
 293:Core/Src/main.c ****   RCC_OscInitStruct.HSIState = RCC_HSI_ON;
 294:Core/Src/main.c ****   RCC_OscInitStruct.PLL.PLLState = RCC_PLL_ON;
 295:Core/Src/main.c ****   RCC_OscInitStruct.PLL.PLLSource = RCC_PLLSOURCE_HSE;
 296:Core/Src/main.c ****   RCC_OscInitStruct.PLL.PLLMUL = RCC_PLL_MUL9;
 297:Core/Src/main.c ****   if (HAL_RCC_OscConfig(&RCC_OscInitStruct) != HAL_OK)
 298:Core/Src/main.c ****   {
 299:Core/Src/main.c ****     Error_Handler();
 300:Core/Src/main.c ****   }
 301:Core/Src/main.c **** 
ARM GAS  C:\Users\Admin\AppData\Local\Temp\ccOfIyoO.s 			page 7


 302:Core/Src/main.c ****   /** Initializes the CPU, AHB and APB buses clocks
 303:Core/Src/main.c ****   */
 304:Core/Src/main.c ****   RCC_ClkInitStruct.ClockType = RCC_CLOCKTYPE_HCLK|RCC_CLOCKTYPE_SYSCLK
 305:Core/Src/main.c ****                               |RCC_CLOCKTYPE_PCLK1|RCC_CLOCKTYPE_PCLK2;
 306:Core/Src/main.c ****   RCC_ClkInitStruct.SYSCLKSource = RCC_SYSCLKSOURCE_PLLCLK;
 307:Core/Src/main.c ****   RCC_ClkInitStruct.AHBCLKDivider = RCC_SYSCLK_DIV1;
 308:Core/Src/main.c ****   RCC_ClkInitStruct.APB1CLKDivider = RCC_HCLK_DIV2;
 309:Core/Src/main.c ****   RCC_ClkInitStruct.APB2CLKDivider = RCC_HCLK_DIV1;
 310:Core/Src/main.c **** 
 311:Core/Src/main.c ****   if (HAL_RCC_ClockConfig(&RCC_ClkInitStruct, FLASH_LATENCY_2) != HAL_OK)
 312:Core/Src/main.c ****   {
 313:Core/Src/main.c ****     Error_Handler();
 314:Core/Src/main.c ****   }
 315:Core/Src/main.c **** }
 316:Core/Src/main.c **** 
 317:Core/Src/main.c **** /**
 318:Core/Src/main.c ****   * @brief SPI2 Initialization Function
 319:Core/Src/main.c ****   * @param None
 320:Core/Src/main.c ****   * @retval None
 321:Core/Src/main.c ****   */
 322:Core/Src/main.c **** static void MX_SPI2_Init(void)
 323:Core/Src/main.c **** {
 324:Core/Src/main.c **** 
 325:Core/Src/main.c ****   /* USER CODE BEGIN SPI2_Init 0 */
 326:Core/Src/main.c **** 
 327:Core/Src/main.c ****   /* USER CODE END SPI2_Init 0 */
 328:Core/Src/main.c **** 
 329:Core/Src/main.c ****   /* USER CODE BEGIN SPI2_Init 1 */
 330:Core/Src/main.c **** 
 331:Core/Src/main.c ****   /* USER CODE END SPI2_Init 1 */
 332:Core/Src/main.c ****   /* SPI2 parameter configuration*/
 333:Core/Src/main.c ****   hspi2.Instance = SPI2;
 334:Core/Src/main.c ****   hspi2.Init.Mode = SPI_MODE_MASTER;
 335:Core/Src/main.c ****   hspi2.Init.Direction = SPI_DIRECTION_1LINE;
 336:Core/Src/main.c ****   hspi2.Init.DataSize = SPI_DATASIZE_8BIT;
 337:Core/Src/main.c ****   hspi2.Init.CLKPolarity = SPI_POLARITY_LOW;
 338:Core/Src/main.c ****   hspi2.Init.CLKPhase = SPI_PHASE_1EDGE;
 339:Core/Src/main.c ****   hspi2.Init.NSS = SPI_NSS_SOFT;
 340:Core/Src/main.c ****   hspi2.Init.BaudRatePrescaler = SPI_BAUDRATEPRESCALER_2;
 341:Core/Src/main.c ****   hspi2.Init.FirstBit = SPI_FIRSTBIT_MSB;
 342:Core/Src/main.c ****   hspi2.Init.TIMode = SPI_TIMODE_DISABLE;
 343:Core/Src/main.c ****   hspi2.Init.CRCCalculation = SPI_CRCCALCULATION_DISABLE;
 344:Core/Src/main.c ****   hspi2.Init.CRCPolynomial = 10;
 345:Core/Src/main.c ****   if (HAL_SPI_Init(&hspi2) != HAL_OK)
 346:Core/Src/main.c ****   {
 347:Core/Src/main.c ****     Error_Handler();
 348:Core/Src/main.c ****   }
 349:Core/Src/main.c ****   /* USER CODE BEGIN SPI2_Init 2 */
 350:Core/Src/main.c **** 
 351:Core/Src/main.c ****   /* USER CODE END SPI2_Init 2 */
 352:Core/Src/main.c **** 
 353:Core/Src/main.c **** }
 354:Core/Src/main.c **** 
 355:Core/Src/main.c **** /**
 356:Core/Src/main.c ****   * @brief TIM2 Initialization Function
 357:Core/Src/main.c ****   * @param None
 358:Core/Src/main.c ****   * @retval None
ARM GAS  C:\Users\Admin\AppData\Local\Temp\ccOfIyoO.s 			page 8


 359:Core/Src/main.c ****   */
 360:Core/Src/main.c **** static void MX_TIM2_Init(void)
 361:Core/Src/main.c **** {
 362:Core/Src/main.c **** 
 363:Core/Src/main.c ****   /* USER CODE BEGIN TIM2_Init 0 */
 364:Core/Src/main.c **** 
 365:Core/Src/main.c ****   /* USER CODE END TIM2_Init 0 */
 366:Core/Src/main.c **** 
 367:Core/Src/main.c ****   TIM_ClockConfigTypeDef sClockSourceConfig = {0};
 368:Core/Src/main.c ****   TIM_MasterConfigTypeDef sMasterConfig = {0};
 369:Core/Src/main.c **** 
 370:Core/Src/main.c ****   /* USER CODE BEGIN TIM2_Init 1 */
 371:Core/Src/main.c **** 
 372:Core/Src/main.c ****   /* USER CODE END TIM2_Init 1 */
 373:Core/Src/main.c ****   htim2.Instance = TIM2;
 374:Core/Src/main.c ****   htim2.Init.Prescaler = 72-1;
 375:Core/Src/main.c ****   htim2.Init.CounterMode = TIM_COUNTERMODE_UP;
 376:Core/Src/main.c ****   htim2.Init.Period = 65535;
 377:Core/Src/main.c ****   htim2.Init.ClockDivision = TIM_CLOCKDIVISION_DIV1;
 378:Core/Src/main.c ****   htim2.Init.AutoReloadPreload = TIM_AUTORELOAD_PRELOAD_DISABLE;
 379:Core/Src/main.c ****   if (HAL_TIM_Base_Init(&htim2) != HAL_OK)
 380:Core/Src/main.c ****   {
 381:Core/Src/main.c ****     Error_Handler();
 382:Core/Src/main.c ****   }
 383:Core/Src/main.c ****   sClockSourceConfig.ClockSource = TIM_CLOCKSOURCE_INTERNAL;
 384:Core/Src/main.c ****   if (HAL_TIM_ConfigClockSource(&htim2, &sClockSourceConfig) != HAL_OK)
 385:Core/Src/main.c ****   {
 386:Core/Src/main.c ****     Error_Handler();
 387:Core/Src/main.c ****   }
 388:Core/Src/main.c ****   sMasterConfig.MasterOutputTrigger = TIM_TRGO_RESET;
 389:Core/Src/main.c ****   sMasterConfig.MasterSlaveMode = TIM_MASTERSLAVEMODE_DISABLE;
 390:Core/Src/main.c ****   if (HAL_TIMEx_MasterConfigSynchronization(&htim2, &sMasterConfig) != HAL_OK)
 391:Core/Src/main.c ****   {
 392:Core/Src/main.c ****     Error_Handler();
 393:Core/Src/main.c ****   }
 394:Core/Src/main.c ****   /* USER CODE BEGIN TIM2_Init 2 */
 395:Core/Src/main.c **** 
 396:Core/Src/main.c ****   /* USER CODE END TIM2_Init 2 */
 397:Core/Src/main.c **** 
 398:Core/Src/main.c **** }
 399:Core/Src/main.c **** 
 400:Core/Src/main.c **** /**
 401:Core/Src/main.c ****   * @brief TIM3 Initialization Function
 402:Core/Src/main.c ****   * @param None
 403:Core/Src/main.c ****   * @retval None
 404:Core/Src/main.c ****   */
 405:Core/Src/main.c **** static void MX_TIM3_Init(void)
 406:Core/Src/main.c **** {
 407:Core/Src/main.c **** 
 408:Core/Src/main.c ****   /* USER CODE BEGIN TIM3_Init 0 */
 409:Core/Src/main.c **** 
 410:Core/Src/main.c ****   /* USER CODE END TIM3_Init 0 */
 411:Core/Src/main.c **** 
 412:Core/Src/main.c ****   TIM_ClockConfigTypeDef sClockSourceConfig = {0};
 413:Core/Src/main.c ****   TIM_MasterConfigTypeDef sMasterConfig = {0};
 414:Core/Src/main.c ****   TIM_OC_InitTypeDef sConfigOC = {0};
 415:Core/Src/main.c **** 
ARM GAS  C:\Users\Admin\AppData\Local\Temp\ccOfIyoO.s 			page 9


 416:Core/Src/main.c ****   /* USER CODE BEGIN TIM3_Init 1 */
 417:Core/Src/main.c **** 
 418:Core/Src/main.c ****   /* USER CODE END TIM3_Init 1 */
 419:Core/Src/main.c ****   htim3.Instance = TIM3;
 420:Core/Src/main.c ****   htim3.Init.Prescaler = 1444-1;
 421:Core/Src/main.c ****   htim3.Init.CounterMode = TIM_COUNTERMODE_UP;
 422:Core/Src/main.c ****   htim3.Init.Period = 1000-1;
 423:Core/Src/main.c ****   htim3.Init.ClockDivision = TIM_CLOCKDIVISION_DIV1;
 424:Core/Src/main.c ****   htim3.Init.AutoReloadPreload = TIM_AUTORELOAD_PRELOAD_DISABLE;
 425:Core/Src/main.c ****   if (HAL_TIM_Base_Init(&htim3) != HAL_OK)
 426:Core/Src/main.c ****   {
 427:Core/Src/main.c ****     Error_Handler();
 428:Core/Src/main.c ****   }
 429:Core/Src/main.c ****   sClockSourceConfig.ClockSource = TIM_CLOCKSOURCE_INTERNAL;
 430:Core/Src/main.c ****   if (HAL_TIM_ConfigClockSource(&htim3, &sClockSourceConfig) != HAL_OK)
 431:Core/Src/main.c ****   {
 432:Core/Src/main.c ****     Error_Handler();
 433:Core/Src/main.c ****   }
 434:Core/Src/main.c ****   if (HAL_TIM_PWM_Init(&htim3) != HAL_OK)
 435:Core/Src/main.c ****   {
 436:Core/Src/main.c ****     Error_Handler();
 437:Core/Src/main.c ****   }
 438:Core/Src/main.c ****   sMasterConfig.MasterOutputTrigger = TIM_TRGO_RESET;
 439:Core/Src/main.c ****   sMasterConfig.MasterSlaveMode = TIM_MASTERSLAVEMODE_DISABLE;
 440:Core/Src/main.c ****   if (HAL_TIMEx_MasterConfigSynchronization(&htim3, &sMasterConfig) != HAL_OK)
 441:Core/Src/main.c ****   {
 442:Core/Src/main.c ****     Error_Handler();
 443:Core/Src/main.c ****   }
 444:Core/Src/main.c ****   sConfigOC.OCMode = TIM_OCMODE_PWM1;
 445:Core/Src/main.c ****   sConfigOC.Pulse = 0;
 446:Core/Src/main.c ****   sConfigOC.OCPolarity = TIM_OCPOLARITY_HIGH;
 447:Core/Src/main.c ****   sConfigOC.OCFastMode = TIM_OCFAST_DISABLE;
 448:Core/Src/main.c ****   if (HAL_TIM_PWM_ConfigChannel(&htim3, &sConfigOC, TIM_CHANNEL_1) != HAL_OK)
 449:Core/Src/main.c ****   {
 450:Core/Src/main.c ****     Error_Handler();
 451:Core/Src/main.c ****   }
 452:Core/Src/main.c ****   /* USER CODE BEGIN TIM3_Init 2 */
 453:Core/Src/main.c **** 
 454:Core/Src/main.c ****   /* USER CODE END TIM3_Init 2 */
 455:Core/Src/main.c ****   HAL_TIM_MspPostInit(&htim3);
 456:Core/Src/main.c **** 
 457:Core/Src/main.c **** }
 458:Core/Src/main.c **** 
 459:Core/Src/main.c **** /**
 460:Core/Src/main.c ****   * @brief USART3 Initialization Function
 461:Core/Src/main.c ****   * @param None
 462:Core/Src/main.c ****   * @retval None
 463:Core/Src/main.c ****   */
 464:Core/Src/main.c **** static void MX_USART3_UART_Init(void)
 465:Core/Src/main.c **** {
 466:Core/Src/main.c **** 
 467:Core/Src/main.c ****   /* USER CODE BEGIN USART3_Init 0 */
 468:Core/Src/main.c **** 
 469:Core/Src/main.c ****   /* USER CODE END USART3_Init 0 */
 470:Core/Src/main.c **** 
 471:Core/Src/main.c ****   /* USER CODE BEGIN USART3_Init 1 */
 472:Core/Src/main.c **** 
ARM GAS  C:\Users\Admin\AppData\Local\Temp\ccOfIyoO.s 			page 10


 473:Core/Src/main.c ****   /* USER CODE END USART3_Init 1 */
 474:Core/Src/main.c ****   huart3.Instance = USART3;
 475:Core/Src/main.c ****   huart3.Init.BaudRate = 115200;
 476:Core/Src/main.c ****   huart3.Init.WordLength = UART_WORDLENGTH_8B;
 477:Core/Src/main.c ****   huart3.Init.StopBits = UART_STOPBITS_1;
 478:Core/Src/main.c ****   huart3.Init.Parity = UART_PARITY_NONE;
 479:Core/Src/main.c ****   huart3.Init.Mode = UART_MODE_TX_RX;
 480:Core/Src/main.c ****   huart3.Init.HwFlowCtl = UART_HWCONTROL_NONE;
 481:Core/Src/main.c ****   huart3.Init.OverSampling = UART_OVERSAMPLING_16;
 482:Core/Src/main.c ****   if (HAL_UART_Init(&huart3) != HAL_OK)
 483:Core/Src/main.c ****   {
 484:Core/Src/main.c ****     Error_Handler();
 485:Core/Src/main.c ****   }
 486:Core/Src/main.c ****   /* USER CODE BEGIN USART3_Init 2 */
 487:Core/Src/main.c **** 
 488:Core/Src/main.c ****   /* USER CODE END USART3_Init 2 */
 489:Core/Src/main.c **** 
 490:Core/Src/main.c **** }
 491:Core/Src/main.c **** 
 492:Core/Src/main.c **** /**
 493:Core/Src/main.c ****   * @brief GPIO Initialization Function
 494:Core/Src/main.c ****   * @param None
 495:Core/Src/main.c ****   * @retval None
 496:Core/Src/main.c ****   */
 497:Core/Src/main.c **** static void MX_GPIO_Init(void)
 498:Core/Src/main.c **** {
  39              		.loc 1 498 1 view -0
  40              		.cfi_startproc
  41              		@ args = 0, pretend = 0, frame = 32
  42              		@ frame_needed = 0, uses_anonymous_args = 0
  43 0000 2DE9F041 		push	{r4, r5, r6, r7, r8, lr}
  44              	.LCFI0:
  45              		.cfi_def_cfa_offset 24
  46              		.cfi_offset 4, -24
  47              		.cfi_offset 5, -20
  48              		.cfi_offset 6, -16
  49              		.cfi_offset 7, -12
  50              		.cfi_offset 8, -8
  51              		.cfi_offset 14, -4
  52 0004 88B0     		sub	sp, sp, #32
  53              	.LCFI1:
  54              		.cfi_def_cfa_offset 56
 499:Core/Src/main.c ****   GPIO_InitTypeDef GPIO_InitStruct = {0};
  55              		.loc 1 499 3 view .LVU1
  56              		.loc 1 499 20 is_stmt 0 view .LVU2
  57 0006 0024     		movs	r4, #0
  58 0008 0494     		str	r4, [sp, #16]
  59 000a 0594     		str	r4, [sp, #20]
  60 000c 0694     		str	r4, [sp, #24]
  61 000e 0794     		str	r4, [sp, #28]
 500:Core/Src/main.c **** 
 501:Core/Src/main.c ****   /* GPIO Ports Clock Enable */
 502:Core/Src/main.c ****   __HAL_RCC_GPIOD_CLK_ENABLE();
  62              		.loc 1 502 3 is_stmt 1 view .LVU3
  63              	.LBB4:
  64              		.loc 1 502 3 view .LVU4
  65              		.loc 1 502 3 view .LVU5
ARM GAS  C:\Users\Admin\AppData\Local\Temp\ccOfIyoO.s 			page 11


  66 0010 1F4B     		ldr	r3, .L3
  67 0012 9A69     		ldr	r2, [r3, #24]
  68 0014 42F02002 		orr	r2, r2, #32
  69 0018 9A61     		str	r2, [r3, #24]
  70              		.loc 1 502 3 view .LVU6
  71 001a 9A69     		ldr	r2, [r3, #24]
  72 001c 02F02002 		and	r2, r2, #32
  73 0020 0192     		str	r2, [sp, #4]
  74              		.loc 1 502 3 view .LVU7
  75 0022 019A     		ldr	r2, [sp, #4]
  76              	.LBE4:
  77              		.loc 1 502 3 view .LVU8
 503:Core/Src/main.c ****   __HAL_RCC_GPIOA_CLK_ENABLE();
  78              		.loc 1 503 3 view .LVU9
  79              	.LBB5:
  80              		.loc 1 503 3 view .LVU10
  81              		.loc 1 503 3 view .LVU11
  82 0024 9A69     		ldr	r2, [r3, #24]
  83 0026 42F00402 		orr	r2, r2, #4
  84 002a 9A61     		str	r2, [r3, #24]
  85              		.loc 1 503 3 view .LVU12
  86 002c 9A69     		ldr	r2, [r3, #24]
  87 002e 02F00402 		and	r2, r2, #4
  88 0032 0292     		str	r2, [sp, #8]
  89              		.loc 1 503 3 view .LVU13
  90 0034 029A     		ldr	r2, [sp, #8]
  91              	.LBE5:
  92              		.loc 1 503 3 view .LVU14
 504:Core/Src/main.c ****   __HAL_RCC_GPIOB_CLK_ENABLE();
  93              		.loc 1 504 3 view .LVU15
  94              	.LBB6:
  95              		.loc 1 504 3 view .LVU16
  96              		.loc 1 504 3 view .LVU17
  97 0036 9A69     		ldr	r2, [r3, #24]
  98 0038 42F00802 		orr	r2, r2, #8
  99 003c 9A61     		str	r2, [r3, #24]
 100              		.loc 1 504 3 view .LVU18
 101 003e 9B69     		ldr	r3, [r3, #24]
 102 0040 03F00803 		and	r3, r3, #8
 103 0044 0393     		str	r3, [sp, #12]
 104              		.loc 1 504 3 view .LVU19
 105 0046 039B     		ldr	r3, [sp, #12]
 106              	.LBE6:
 107              		.loc 1 504 3 view .LVU20
 505:Core/Src/main.c **** 
 506:Core/Src/main.c ****   /*Configure GPIO pin Output Level */
 507:Core/Src/main.c ****   HAL_GPIO_WritePin(GPIOA, GPIO_PIN_0|GPIO_PIN_1|GPIO_PIN_2, GPIO_PIN_RESET);
 108              		.loc 1 507 3 view .LVU21
 109 0048 DFF84880 		ldr	r8, .L3+4
 110 004c 2246     		mov	r2, r4
 111 004e 0721     		movs	r1, #7
 112 0050 4046     		mov	r0, r8
 113 0052 FFF7FEFF 		bl	HAL_GPIO_WritePin
 114              	.LVL0:
 508:Core/Src/main.c **** 
 509:Core/Src/main.c ****   /*Configure GPIO pin Output Level */
 510:Core/Src/main.c ****   HAL_GPIO_WritePin(GPIOB, GPIO_PIN_0, GPIO_PIN_RESET);
ARM GAS  C:\Users\Admin\AppData\Local\Temp\ccOfIyoO.s 			page 12


 115              		.loc 1 510 3 view .LVU22
 116 0056 104E     		ldr	r6, .L3+8
 117 0058 2246     		mov	r2, r4
 118 005a 0121     		movs	r1, #1
 119 005c 3046     		mov	r0, r6
 120 005e FFF7FEFF 		bl	HAL_GPIO_WritePin
 121              	.LVL1:
 511:Core/Src/main.c **** 
 512:Core/Src/main.c ****   /*Configure GPIO pins : PA0 PA1 PA2 */
 513:Core/Src/main.c ****   GPIO_InitStruct.Pin = GPIO_PIN_0|GPIO_PIN_1|GPIO_PIN_2;
 122              		.loc 1 513 3 view .LVU23
 123              		.loc 1 513 23 is_stmt 0 view .LVU24
 124 0062 0723     		movs	r3, #7
 125 0064 0493     		str	r3, [sp, #16]
 514:Core/Src/main.c ****   GPIO_InitStruct.Mode = GPIO_MODE_OUTPUT_PP;
 126              		.loc 1 514 3 is_stmt 1 view .LVU25
 127              		.loc 1 514 24 is_stmt 0 view .LVU26
 128 0066 0125     		movs	r5, #1
 129 0068 0595     		str	r5, [sp, #20]
 515:Core/Src/main.c ****   GPIO_InitStruct.Pull = GPIO_PULLUP;
 130              		.loc 1 515 3 is_stmt 1 view .LVU27
 131              		.loc 1 515 24 is_stmt 0 view .LVU28
 132 006a 0695     		str	r5, [sp, #24]
 516:Core/Src/main.c ****   GPIO_InitStruct.Speed = GPIO_SPEED_FREQ_LOW;
 133              		.loc 1 516 3 is_stmt 1 view .LVU29
 134              		.loc 1 516 25 is_stmt 0 view .LVU30
 135 006c 0227     		movs	r7, #2
 136 006e 0797     		str	r7, [sp, #28]
 517:Core/Src/main.c ****   HAL_GPIO_Init(GPIOA, &GPIO_InitStruct);
 137              		.loc 1 517 3 is_stmt 1 view .LVU31
 138 0070 04A9     		add	r1, sp, #16
 139 0072 4046     		mov	r0, r8
 140 0074 FFF7FEFF 		bl	HAL_GPIO_Init
 141              	.LVL2:
 518:Core/Src/main.c **** 
 519:Core/Src/main.c ****   /*Configure GPIO pin : PB0 */
 520:Core/Src/main.c ****   GPIO_InitStruct.Pin = GPIO_PIN_0;
 142              		.loc 1 520 3 view .LVU32
 143              		.loc 1 520 23 is_stmt 0 view .LVU33
 144 0078 0495     		str	r5, [sp, #16]
 521:Core/Src/main.c ****   GPIO_InitStruct.Mode = GPIO_MODE_OUTPUT_PP;
 145              		.loc 1 521 3 is_stmt 1 view .LVU34
 146              		.loc 1 521 24 is_stmt 0 view .LVU35
 147 007a 0595     		str	r5, [sp, #20]
 522:Core/Src/main.c ****   GPIO_InitStruct.Pull = GPIO_NOPULL;
 148              		.loc 1 522 3 is_stmt 1 view .LVU36
 149              		.loc 1 522 24 is_stmt 0 view .LVU37
 150 007c 0694     		str	r4, [sp, #24]
 523:Core/Src/main.c ****   GPIO_InitStruct.Speed = GPIO_SPEED_FREQ_LOW;
 151              		.loc 1 523 3 is_stmt 1 view .LVU38
 152              		.loc 1 523 25 is_stmt 0 view .LVU39
 153 007e 0797     		str	r7, [sp, #28]
 524:Core/Src/main.c ****   HAL_GPIO_Init(GPIOB, &GPIO_InitStruct);
 154              		.loc 1 524 3 is_stmt 1 view .LVU40
 155 0080 04A9     		add	r1, sp, #16
 156 0082 3046     		mov	r0, r6
 157 0084 FFF7FEFF 		bl	HAL_GPIO_Init
ARM GAS  C:\Users\Admin\AppData\Local\Temp\ccOfIyoO.s 			page 13


 158              	.LVL3:
 525:Core/Src/main.c **** 
 526:Core/Src/main.c **** }
 159              		.loc 1 526 1 is_stmt 0 view .LVU41
 160 0088 08B0     		add	sp, sp, #32
 161              	.LCFI2:
 162              		.cfi_def_cfa_offset 24
 163              		@ sp needed
 164 008a BDE8F081 		pop	{r4, r5, r6, r7, r8, pc}
 165              	.L4:
 166 008e 00BF     		.align	2
 167              	.L3:
 168 0090 00100240 		.word	1073876992
 169 0094 00080140 		.word	1073809408
 170 0098 000C0140 		.word	1073810432
 171              		.cfi_endproc
 172              	.LFE81:
 174              		.section	.text.log_data,"ax",%progbits
 175              		.align	1
 176              		.global	log_data
 177              		.syntax unified
 178              		.thumb
 179              		.thumb_func
 181              	log_data:
 182              	.LVL4:
 183              	.LFB73:
 119:Core/Src/main.c ****   HAL_UART_Transmit(&huart3, (uint8_t *)buf, strlen(buf), 100);
 184              		.loc 1 119 1 is_stmt 1 view -0
 185              		.cfi_startproc
 186              		@ args = 0, pretend = 0, frame = 0
 187              		@ frame_needed = 0, uses_anonymous_args = 0
 119:Core/Src/main.c ****   HAL_UART_Transmit(&huart3, (uint8_t *)buf, strlen(buf), 100);
 188              		.loc 1 119 1 is_stmt 0 view .LVU43
 189 0000 10B5     		push	{r4, lr}
 190              	.LCFI3:
 191              		.cfi_def_cfa_offset 8
 192              		.cfi_offset 4, -8
 193              		.cfi_offset 14, -4
 194 0002 0446     		mov	r4, r0
 120:Core/Src/main.c **** }
 195              		.loc 1 120 3 is_stmt 1 view .LVU44
 120:Core/Src/main.c **** }
 196              		.loc 1 120 46 is_stmt 0 view .LVU45
 197 0004 FFF7FEFF 		bl	strlen
 198              	.LVL5:
 120:Core/Src/main.c **** }
 199              		.loc 1 120 3 view .LVU46
 200 0008 6423     		movs	r3, #100
 201 000a 82B2     		uxth	r2, r0
 202 000c 2146     		mov	r1, r4
 203 000e 0248     		ldr	r0, .L7
 204 0010 FFF7FEFF 		bl	HAL_UART_Transmit
 205              	.LVL6:
 121:Core/Src/main.c **** 
 206              		.loc 1 121 1 view .LVU47
 207 0014 10BD     		pop	{r4, pc}
 208              	.LVL7:
ARM GAS  C:\Users\Admin\AppData\Local\Temp\ccOfIyoO.s 			page 14


 209              	.L8:
 121:Core/Src/main.c **** 
 210              		.loc 1 121 1 view .LVU48
 211 0016 00BF     		.align	2
 212              	.L7:
 213 0018 00000000 		.word	.LANCHOR0
 214              		.cfi_endproc
 215              	.LFE73:
 217              		.section	.rodata.Task_Sensor.str1.4,"aMS",%progbits,1
 218              		.align	2
 219              	.LC8:
 220 0000 7461736B 		.ascii	"task sensor\012\000"
 220      2073656E 
 220      736F720A 
 220      00
 221              		.global	__aeabi_ui2f
 222              		.global	__aeabi_i2d
 223              		.global	__aeabi_ddiv
 224              		.global	__aeabi_d2f
 225              		.global	__aeabi_fadd
 226              		.global	__aeabi_f2iz
 227              		.section	.text.Task_Sensor,"ax",%progbits
 228              		.align	1
 229              		.global	Task_Sensor
 230              		.syntax unified
 231              		.thumb
 232              		.thumb_func
 234              	Task_Sensor:
 235              	.LFB82:
 527:Core/Src/main.c **** 
 528:Core/Src/main.c **** /* USER CODE BEGIN 4 */
 529:Core/Src/main.c **** 
 530:Core/Src/main.c **** /* USER CODE END 4 */
 531:Core/Src/main.c **** 
 532:Core/Src/main.c **** /* USER CODE BEGIN Header_Task_Sensor */
 533:Core/Src/main.c **** /**
 534:Core/Src/main.c ****  * @brief  Function implementing the Task1 thread.
 535:Core/Src/main.c ****  * @param  argument: Not used
 536:Core/Src/main.c ****  * @retval None
 537:Core/Src/main.c ****  */
 538:Core/Src/main.c **** /* USER CODE END Header_Task_Sensor */
 539:Core/Src/main.c **** void Task_Sensor(void const * argument)
 540:Core/Src/main.c **** {
 236              		.loc 1 540 1 is_stmt 1 view -0
 237              		.cfi_startproc
 238              		@ Volatile: function does not return.
 239              		@ args = 0, pretend = 0, frame = 0
 240              		@ frame_needed = 0, uses_anonymous_args = 0
 241              	.LVL8:
 242              		.loc 1 540 1 is_stmt 0 view .LVU50
 243 0000 80B5     		push	{r7, lr}
 244              	.LCFI4:
 245              		.cfi_def_cfa_offset 8
 246              		.cfi_offset 7, -8
 247              		.cfi_offset 14, -4
 248 0002 07E0     		b	.L11
 249              	.LVL9:
ARM GAS  C:\Users\Admin\AppData\Local\Temp\ccOfIyoO.s 			page 15


 250              	.L10:
 541:Core/Src/main.c ****   /* USER CODE BEGIN 5 */
 542:Core/Src/main.c ****   /* Infinite loop */
 543:Core/Src/main.c ****   for (;;)
 544:Core/Src/main.c ****   {
 545:Core/Src/main.c ****     log_data("task sensor\n");
 546:Core/Src/main.c ****     // read sensor
 547:Core/Src/main.c ****     if (DHT11_Start())
 548:Core/Src/main.c ****     {
 549:Core/Src/main.c ****       RHI = DHT11_Read(); // Relative humidity integral
 550:Core/Src/main.c ****       RHD = DHT11_Read(); // Relative humidity decimal
 551:Core/Src/main.c ****       TCI = DHT11_Read(); // Celsius integral
 552:Core/Src/main.c ****       TCD = DHT11_Read(); // Celsius decimal
 553:Core/Src/main.c ****       SUM = DHT11_Read(); // Check sum
 554:Core/Src/main.c ****       if (RHI + RHD + TCI + TCD == SUM)
 555:Core/Src/main.c ****       {
 556:Core/Src/main.c ****         // Can use RHI and TCI for any purposes if whole number only needed
 557:Core/Src/main.c ****         temp = (float)TCI + (float)(TCD / 10.0);
 558:Core/Src/main.c ****         humi = (float)RHI + (float)(RHD / 10.0);
 559:Core/Src/main.c ****         // Can use tCelsius, tFahrenheit and RH for any purposes
 560:Core/Src/main.c ****       }
 561:Core/Src/main.c ****     }
 562:Core/Src/main.c ****     osSemaphoreRelease(SensorSemHandle);
 251              		.loc 1 562 5 is_stmt 1 view .LVU51
 252 0004 2B4B     		ldr	r3, .L13
 253 0006 1868     		ldr	r0, [r3]
 254 0008 FFF7FEFF 		bl	osSemaphoreRelease
 255              	.LVL10:
 563:Core/Src/main.c ****     osDelay(1000);
 256              		.loc 1 563 5 view .LVU52
 257 000c 4FF47A70 		mov	r0, #1000
 258 0010 FFF7FEFF 		bl	osDelay
 259              	.LVL11:
 543:Core/Src/main.c ****   {
 260              		.loc 1 543 9 view .LVU53
 261              	.L11:
 543:Core/Src/main.c ****   {
 262              		.loc 1 543 3 view .LVU54
 545:Core/Src/main.c ****     // read sensor
 263              		.loc 1 545 5 view .LVU55
 264 0014 2848     		ldr	r0, .L13+4
 265 0016 FFF7FEFF 		bl	log_data
 266              	.LVL12:
 547:Core/Src/main.c ****     {
 267              		.loc 1 547 5 view .LVU56
 547:Core/Src/main.c ****     {
 268              		.loc 1 547 9 is_stmt 0 view .LVU57
 269 001a FFF7FEFF 		bl	DHT11_Start
 270              	.LVL13:
 547:Core/Src/main.c ****     {
 271              		.loc 1 547 8 view .LVU58
 272 001e 0028     		cmp	r0, #0
 273 0020 F0D0     		beq	.L10
 549:Core/Src/main.c ****       RHD = DHT11_Read(); // Relative humidity decimal
 274              		.loc 1 549 7 is_stmt 1 view .LVU59
 549:Core/Src/main.c ****       RHD = DHT11_Read(); // Relative humidity decimal
 275              		.loc 1 549 13 is_stmt 0 view .LVU60
ARM GAS  C:\Users\Admin\AppData\Local\Temp\ccOfIyoO.s 			page 16


 276 0022 FFF7FEFF 		bl	DHT11_Read
 277              	.LVL14:
 549:Core/Src/main.c ****       RHD = DHT11_Read(); // Relative humidity decimal
 278              		.loc 1 549 11 view .LVU61
 279 0026 254F     		ldr	r7, .L13+8
 280 0028 3870     		strb	r0, [r7]
 550:Core/Src/main.c ****       TCI = DHT11_Read(); // Celsius integral
 281              		.loc 1 550 7 is_stmt 1 view .LVU62
 550:Core/Src/main.c ****       TCI = DHT11_Read(); // Celsius integral
 282              		.loc 1 550 13 is_stmt 0 view .LVU63
 283 002a FFF7FEFF 		bl	DHT11_Read
 284              	.LVL15:
 550:Core/Src/main.c ****       TCI = DHT11_Read(); // Celsius integral
 285              		.loc 1 550 11 view .LVU64
 286 002e 244E     		ldr	r6, .L13+12
 287 0030 3070     		strb	r0, [r6]
 551:Core/Src/main.c ****       TCD = DHT11_Read(); // Celsius decimal
 288              		.loc 1 551 7 is_stmt 1 view .LVU65
 551:Core/Src/main.c ****       TCD = DHT11_Read(); // Celsius decimal
 289              		.loc 1 551 13 is_stmt 0 view .LVU66
 290 0032 FFF7FEFF 		bl	DHT11_Read
 291              	.LVL16:
 551:Core/Src/main.c ****       TCD = DHT11_Read(); // Celsius decimal
 292              		.loc 1 551 11 view .LVU67
 293 0036 234D     		ldr	r5, .L13+16
 294 0038 2870     		strb	r0, [r5]
 552:Core/Src/main.c ****       SUM = DHT11_Read(); // Check sum
 295              		.loc 1 552 7 is_stmt 1 view .LVU68
 552:Core/Src/main.c ****       SUM = DHT11_Read(); // Check sum
 296              		.loc 1 552 13 is_stmt 0 view .LVU69
 297 003a FFF7FEFF 		bl	DHT11_Read
 298              	.LVL17:
 552:Core/Src/main.c ****       SUM = DHT11_Read(); // Check sum
 299              		.loc 1 552 11 view .LVU70
 300 003e 224C     		ldr	r4, .L13+20
 301 0040 2070     		strb	r0, [r4]
 553:Core/Src/main.c ****       if (RHI + RHD + TCI + TCD == SUM)
 302              		.loc 1 553 7 is_stmt 1 view .LVU71
 553:Core/Src/main.c ****       if (RHI + RHD + TCI + TCD == SUM)
 303              		.loc 1 553 13 is_stmt 0 view .LVU72
 304 0042 FFF7FEFF 		bl	DHT11_Read
 305              	.LVL18:
 306 0046 0246     		mov	r2, r0
 553:Core/Src/main.c ****       if (RHI + RHD + TCI + TCD == SUM)
 307              		.loc 1 553 11 view .LVU73
 308 0048 204B     		ldr	r3, .L13+24
 309 004a 1870     		strb	r0, [r3]
 554:Core/Src/main.c ****       {
 310              		.loc 1 554 7 is_stmt 1 view .LVU74
 554:Core/Src/main.c ****       {
 311              		.loc 1 554 15 is_stmt 0 view .LVU75
 312 004c 3F78     		ldrb	r7, [r7]	@ zero_extendqisi2
 313 004e 3678     		ldrb	r6, [r6]	@ zero_extendqisi2
 314 0050 BB19     		adds	r3, r7, r6
 554:Core/Src/main.c ****       {
 315              		.loc 1 554 21 view .LVU76
 316 0052 2878     		ldrb	r0, [r5]	@ zero_extendqisi2
ARM GAS  C:\Users\Admin\AppData\Local\Temp\ccOfIyoO.s 			page 17


 317 0054 0344     		add	r3, r3, r0
 554:Core/Src/main.c ****       {
 318              		.loc 1 554 27 view .LVU77
 319 0056 2478     		ldrb	r4, [r4]	@ zero_extendqisi2
 320 0058 2344     		add	r3, r3, r4
 554:Core/Src/main.c ****       {
 321              		.loc 1 554 10 view .LVU78
 322 005a 9342     		cmp	r3, r2
 323 005c D2D1     		bne	.L10
 557:Core/Src/main.c ****         humi = (float)RHI + (float)(RHD / 10.0);
 324              		.loc 1 557 9 is_stmt 1 view .LVU79
 557:Core/Src/main.c ****         humi = (float)RHI + (float)(RHD / 10.0);
 325              		.loc 1 557 16 is_stmt 0 view .LVU80
 326 005e FFF7FEFF 		bl	__aeabi_ui2f
 327              	.LVL19:
 328 0062 0546     		mov	r5, r0
 557:Core/Src/main.c ****         humi = (float)RHI + (float)(RHD / 10.0);
 329              		.loc 1 557 41 view .LVU81
 330 0064 2046     		mov	r0, r4
 331 0066 FFF7FEFF 		bl	__aeabi_i2d
 332              	.LVL20:
 333 006a 0022     		movs	r2, #0
 334 006c 184B     		ldr	r3, .L13+28
 335 006e FFF7FEFF 		bl	__aeabi_ddiv
 336              	.LVL21:
 557:Core/Src/main.c ****         humi = (float)RHI + (float)(RHD / 10.0);
 337              		.loc 1 557 29 view .LVU82
 338 0072 FFF7FEFF 		bl	__aeabi_d2f
 339              	.LVL22:
 340 0076 0146     		mov	r1, r0
 557:Core/Src/main.c ****         humi = (float)RHI + (float)(RHD / 10.0);
 341              		.loc 1 557 27 view .LVU83
 342 0078 2846     		mov	r0, r5
 343 007a FFF7FEFF 		bl	__aeabi_fadd
 344              	.LVL23:
 557:Core/Src/main.c ****         humi = (float)RHI + (float)(RHD / 10.0);
 345              		.loc 1 557 14 view .LVU84
 346 007e FFF7FEFF 		bl	__aeabi_f2iz
 347              	.LVL24:
 348 0082 144B     		ldr	r3, .L13+32
 349 0084 1860     		str	r0, [r3]
 558:Core/Src/main.c ****         // Can use tCelsius, tFahrenheit and RH for any purposes
 350              		.loc 1 558 9 is_stmt 1 view .LVU85
 558:Core/Src/main.c ****         // Can use tCelsius, tFahrenheit and RH for any purposes
 351              		.loc 1 558 16 is_stmt 0 view .LVU86
 352 0086 3846     		mov	r0, r7
 353 0088 FFF7FEFF 		bl	__aeabi_ui2f
 354              	.LVL25:
 355 008c 0446     		mov	r4, r0
 558:Core/Src/main.c ****         // Can use tCelsius, tFahrenheit and RH for any purposes
 356              		.loc 1 558 41 view .LVU87
 357 008e 3046     		mov	r0, r6
 358 0090 FFF7FEFF 		bl	__aeabi_i2d
 359              	.LVL26:
 360 0094 0022     		movs	r2, #0
 361 0096 0E4B     		ldr	r3, .L13+28
 362 0098 FFF7FEFF 		bl	__aeabi_ddiv
ARM GAS  C:\Users\Admin\AppData\Local\Temp\ccOfIyoO.s 			page 18


 363              	.LVL27:
 558:Core/Src/main.c ****         // Can use tCelsius, tFahrenheit and RH for any purposes
 364              		.loc 1 558 29 view .LVU88
 365 009c FFF7FEFF 		bl	__aeabi_d2f
 366              	.LVL28:
 367 00a0 0146     		mov	r1, r0
 558:Core/Src/main.c ****         // Can use tCelsius, tFahrenheit and RH for any purposes
 368              		.loc 1 558 27 view .LVU89
 369 00a2 2046     		mov	r0, r4
 370 00a4 FFF7FEFF 		bl	__aeabi_fadd
 371              	.LVL29:
 558:Core/Src/main.c ****         // Can use tCelsius, tFahrenheit and RH for any purposes
 372              		.loc 1 558 14 view .LVU90
 373 00a8 FFF7FEFF 		bl	__aeabi_f2iz
 374              	.LVL30:
 375 00ac 0A4B     		ldr	r3, .L13+36
 376 00ae 1860     		str	r0, [r3]
 377 00b0 A8E7     		b	.L10
 378              	.L14:
 379 00b2 00BF     		.align	2
 380              	.L13:
 381 00b4 00000000 		.word	.LANCHOR8
 382 00b8 00000000 		.word	.LC8
 383 00bc 00000000 		.word	.LANCHOR1
 384 00c0 00000000 		.word	.LANCHOR2
 385 00c4 00000000 		.word	.LANCHOR3
 386 00c8 00000000 		.word	.LANCHOR4
 387 00cc 00000000 		.word	.LANCHOR5
 388 00d0 00002440 		.word	1076101120
 389 00d4 00000000 		.word	.LANCHOR6
 390 00d8 00000000 		.word	.LANCHOR7
 391              		.cfi_endproc
 392              	.LFE82:
 394              		.section	.rodata.Task_Servo.str1.4,"aMS",%progbits,1
 395              		.align	2
 396              	.LC9:
 397 0000 7461736B 		.ascii	"task servo\012\000"
 397      20736572 
 397      766F0A00 
 398              		.align	2
 399              	.LC10:
 400 000c 7461736B 		.ascii	"task servo mode auto\012\000"
 400      20736572 
 400      766F206D 
 400      6F646520 
 400      6175746F 
 401              		.global	__aeabi_i2f
 402              		.global	__aeabi_fcmpgt
 403 0022 0000     		.align	2
 404              	.LC11:
 405 0024 7461736B 		.ascii	"task servo mode manual\012\000"
 405      20736572 
 405      766F206D 
 405      6F646520 
 405      6D616E75 
 406              		.global	__aeabi_d2iz
 407              		.section	.text.Task_Servo,"ax",%progbits
ARM GAS  C:\Users\Admin\AppData\Local\Temp\ccOfIyoO.s 			page 19


 408              		.align	1
 409              		.global	Task_Servo
 410              		.syntax unified
 411              		.thumb
 412              		.thumb_func
 414              	Task_Servo:
 415              	.LFB83:
 564:Core/Src/main.c ****   }
 565:Core/Src/main.c **** 
 566:Core/Src/main.c ****   /* USER CODE END 5 */
 567:Core/Src/main.c **** }
 568:Core/Src/main.c **** 
 569:Core/Src/main.c **** /* USER CODE BEGIN Header_Task_Servo */
 570:Core/Src/main.c **** /**
 571:Core/Src/main.c ****  * @brief Function implementing the Task2 thread.
 572:Core/Src/main.c ****  * @param argument: Not used
 573:Core/Src/main.c ****  * @retval None
 574:Core/Src/main.c ****  */
 575:Core/Src/main.c **** /* USER CODE END Header_Task_Servo */
 576:Core/Src/main.c **** void Task_Servo(void const * argument)
 577:Core/Src/main.c **** {
 416              		.loc 1 577 1 is_stmt 1 view -0
 417              		.cfi_startproc
 418              		@ Volatile: function does not return.
 419              		@ args = 0, pretend = 0, frame = 0
 420              		@ frame_needed = 0, uses_anonymous_args = 0
 421              	.LVL31:
 422              		.loc 1 577 1 is_stmt 0 view .LVU92
 423 0000 08B5     		push	{r3, lr}
 424              	.LCFI5:
 425              		.cfi_def_cfa_offset 8
 426              		.cfi_offset 3, -8
 427              		.cfi_offset 14, -4
 428 0002 19E0     		b	.L22
 429              	.LVL32:
 430              	.L27:
 578:Core/Src/main.c ****   /* USER CODE BEGIN Task_Servo */
 579:Core/Src/main.c ****   /* Infinite loop */
 580:Core/Src/main.c ****   for (;;)
 581:Core/Src/main.c ****   {
 582:Core/Src/main.c ****     if (osSemaphoreWait(SensorSemHandle, osWaitForever) == osOK || osSemaphoreWait(DataSemHandle, o
 431              		.loc 1 582 68 discriminator 1 view .LVU93
 432 0004 4FF0FF31 		mov	r1, #-1
 433 0008 294B     		ldr	r3, .L28+8
 434 000a 1868     		ldr	r0, [r3]
 435 000c FFF7FEFF 		bl	osSemaphoreWait
 436              	.LVL33:
 437              		.loc 1 582 65 discriminator 1 view .LVU94
 438 0010 70B9     		cbnz	r0, .L17
 439 0012 19E0     		b	.L16
 440              	.L24:
 583:Core/Src/main.c ****     {
 584:Core/Src/main.c ****       log_data("task servo\n");
 585:Core/Src/main.c ****       if (Mode == Mode_auto)
 586:Core/Src/main.c ****       {
 587:Core/Src/main.c ****         log_data("task servo mode auto\n");
 588:Core/Src/main.c ****         if (temp > PC_threshold)
ARM GAS  C:\Users\Admin\AppData\Local\Temp\ccOfIyoO.s 			page 20


 589:Core/Src/main.c ****         {
 590:Core/Src/main.c ****           TIM3->CCR1 = 25;
 591:Core/Src/main.c ****           PC_rota = 0;
 592:Core/Src/main.c ****           //ST7735_WriteString(0, 3 * 10 * 3, rota, Font_11x18, ST7735_GREEN, ST7735_BLACK);
 593:Core/Src/main.c ****         }
 594:Core/Src/main.c ****         //>30C -> close curtain
 595:Core/Src/main.c ****         else
 596:Core/Src/main.c ****         {
 597:Core/Src/main.c ****           TIM3->CCR1 = 125;
 441              		.loc 1 597 11 is_stmt 1 view .LVU95
 442              		.loc 1 597 22 is_stmt 0 view .LVU96
 443 0014 274B     		ldr	r3, .L28+12
 444 0016 7D22     		movs	r2, #125
 445 0018 5A63     		str	r2, [r3, #52]
 598:Core/Src/main.c ****           PC_rota = 180;
 446              		.loc 1 598 11 is_stmt 1 view .LVU97
 447              		.loc 1 598 19 is_stmt 0 view .LVU98
 448 001a 274B     		ldr	r3, .L28+16
 449 001c B422     		movs	r2, #180
 450 001e 1A60     		str	r2, [r3]
 451              	.L18:
 599:Core/Src/main.c ****           //ST7735_WriteString(0, 3 * 10 * 3, rota, Font_11x18, ST7735_GREEN, ST7735_BLACK);
 600:Core/Src/main.c ****         }
 601:Core/Src/main.c ****       }
 602:Core/Src/main.c ****       if (Mode == Mode_manual)
 452              		.loc 1 602 7 is_stmt 1 view .LVU99
 453              		.loc 1 602 16 is_stmt 0 view .LVU100
 454 0020 264B     		ldr	r3, .L28+20
 455 0022 1B68     		ldr	r3, [r3]
 456              		.loc 1 602 10 view .LVU101
 457 0024 012B     		cmp	r3, #1
 458 0026 2AD0     		beq	.L26
 459              	.L21:
 603:Core/Src/main.c ****       {
 604:Core/Src/main.c ****         log_data("task servo mode manual\n");
 605:Core/Src/main.c ****         TIM3->CCR1 = (int)((PC_rota + 45) / 1.8);
 606:Core/Src/main.c ****       }
 607:Core/Src/main.c ****       osSemaphoreRelease(ServoSemHandle);
 460              		.loc 1 607 7 is_stmt 1 view .LVU102
 461 0028 254B     		ldr	r3, .L28+24
 462 002a 1868     		ldr	r0, [r3]
 463 002c FFF7FEFF 		bl	osSemaphoreRelease
 464              	.LVL34:
 465              	.L17:
 608:Core/Src/main.c ****     }
 609:Core/Src/main.c ****     osDelay(500);
 466              		.loc 1 609 5 view .LVU103
 467 0030 4FF4FA70 		mov	r0, #500
 468 0034 FFF7FEFF 		bl	osDelay
 469              	.LVL35:
 580:Core/Src/main.c ****   {
 470              		.loc 1 580 9 view .LVU104
 471              	.L22:
 580:Core/Src/main.c ****   {
 472              		.loc 1 580 3 view .LVU105
 582:Core/Src/main.c ****     {
 473              		.loc 1 582 5 view .LVU106
ARM GAS  C:\Users\Admin\AppData\Local\Temp\ccOfIyoO.s 			page 21


 582:Core/Src/main.c ****     {
 474              		.loc 1 582 9 is_stmt 0 view .LVU107
 475 0038 4FF0FF31 		mov	r1, #-1
 476 003c 214B     		ldr	r3, .L28+28
 477 003e 1868     		ldr	r0, [r3]
 478 0040 FFF7FEFF 		bl	osSemaphoreWait
 479              	.LVL36:
 582:Core/Src/main.c ****     {
 480              		.loc 1 582 8 view .LVU108
 481 0044 0028     		cmp	r0, #0
 482 0046 DDD1     		bne	.L27
 483              	.L16:
 584:Core/Src/main.c ****       if (Mode == Mode_auto)
 484              		.loc 1 584 7 is_stmt 1 view .LVU109
 485 0048 1F48     		ldr	r0, .L28+32
 486 004a FFF7FEFF 		bl	log_data
 487              	.LVL37:
 585:Core/Src/main.c ****       {
 488              		.loc 1 585 7 view .LVU110
 585:Core/Src/main.c ****       {
 489              		.loc 1 585 16 is_stmt 0 view .LVU111
 490 004e 1B4B     		ldr	r3, .L28+20
 491 0050 1B68     		ldr	r3, [r3]
 585:Core/Src/main.c ****       {
 492              		.loc 1 585 10 view .LVU112
 493 0052 002B     		cmp	r3, #0
 494 0054 E4D1     		bne	.L18
 587:Core/Src/main.c ****         if (temp > PC_threshold)
 495              		.loc 1 587 9 is_stmt 1 view .LVU113
 496 0056 1D48     		ldr	r0, .L28+36
 497 0058 FFF7FEFF 		bl	log_data
 498              	.LVL38:
 588:Core/Src/main.c ****         {
 499              		.loc 1 588 9 view .LVU114
 588:Core/Src/main.c ****         {
 500              		.loc 1 588 18 is_stmt 0 view .LVU115
 501 005c 1C4B     		ldr	r3, .L28+40
 502 005e 1868     		ldr	r0, [r3]
 503 0060 FFF7FEFF 		bl	__aeabi_i2f
 504              	.LVL39:
 588:Core/Src/main.c ****         {
 505              		.loc 1 588 12 view .LVU116
 506 0064 1B4B     		ldr	r3, .L28+44
 507 0066 1968     		ldr	r1, [r3]	@ float
 508 0068 FFF7FEFF 		bl	__aeabi_fcmpgt
 509              	.LVL40:
 510 006c 0028     		cmp	r0, #0
 511 006e D1D0     		beq	.L24
 590:Core/Src/main.c ****           PC_rota = 0;
 512              		.loc 1 590 11 is_stmt 1 view .LVU117
 590:Core/Src/main.c ****           PC_rota = 0;
 513              		.loc 1 590 22 is_stmt 0 view .LVU118
 514 0070 104B     		ldr	r3, .L28+12
 515 0072 1922     		movs	r2, #25
 516 0074 5A63     		str	r2, [r3, #52]
 591:Core/Src/main.c ****           //ST7735_WriteString(0, 3 * 10 * 3, rota, Font_11x18, ST7735_GREEN, ST7735_BLACK);
 517              		.loc 1 591 11 is_stmt 1 view .LVU119
ARM GAS  C:\Users\Admin\AppData\Local\Temp\ccOfIyoO.s 			page 22


 591:Core/Src/main.c ****           //ST7735_WriteString(0, 3 * 10 * 3, rota, Font_11x18, ST7735_GREEN, ST7735_BLACK);
 518              		.loc 1 591 19 is_stmt 0 view .LVU120
 519 0076 104B     		ldr	r3, .L28+16
 520 0078 0022     		movs	r2, #0
 521 007a 1A60     		str	r2, [r3]
 522 007c D0E7     		b	.L18
 523              	.L26:
 604:Core/Src/main.c ****         TIM3->CCR1 = (int)((PC_rota + 45) / 1.8);
 524              		.loc 1 604 9 is_stmt 1 view .LVU121
 525 007e 1648     		ldr	r0, .L28+48
 526 0080 FFF7FEFF 		bl	log_data
 527              	.LVL41:
 605:Core/Src/main.c ****       }
 528              		.loc 1 605 9 view .LVU122
 605:Core/Src/main.c ****       }
 529              		.loc 1 605 37 is_stmt 0 view .LVU123
 530 0084 0C4B     		ldr	r3, .L28+16
 531 0086 1868     		ldr	r0, [r3]
 605:Core/Src/main.c ****       }
 532              		.loc 1 605 43 view .LVU124
 533 0088 2D30     		adds	r0, r0, #45
 534 008a FFF7FEFF 		bl	__aeabi_i2d
 535              	.LVL42:
 536 008e 06A3     		adr	r3, .L28
 537 0090 D3E90023 		ldrd	r2, [r3]
 538 0094 FFF7FEFF 		bl	__aeabi_ddiv
 539              	.LVL43:
 605:Core/Src/main.c ****       }
 540              		.loc 1 605 22 view .LVU125
 541 0098 FFF7FEFF 		bl	__aeabi_d2iz
 542              	.LVL44:
 605:Core/Src/main.c ****       }
 543              		.loc 1 605 20 view .LVU126
 544 009c 054B     		ldr	r3, .L28+12
 545 009e 5863     		str	r0, [r3, #52]
 546 00a0 C2E7     		b	.L21
 547              	.L29:
 548 00a2 00BFAFF3 		.align	3
 548      0080
 549              	.L28:
 550 00a8 CDCCCCCC 		.word	-858993459
 551 00ac CCCCFC3F 		.word	1073532108
 552 00b0 00000000 		.word	.LANCHOR9
 553 00b4 00040040 		.word	1073742848
 554 00b8 00000000 		.word	.LANCHOR12
 555 00bc 00000000 		.word	.LANCHOR10
 556 00c0 00000000 		.word	.LANCHOR13
 557 00c4 00000000 		.word	.LANCHOR8
 558 00c8 00000000 		.word	.LC9
 559 00cc 0C000000 		.word	.LC10
 560 00d0 00000000 		.word	.LANCHOR6
 561 00d4 00000000 		.word	.LANCHOR11
 562 00d8 24000000 		.word	.LC11
 563              		.cfi_endproc
 564              	.LFE83:
 566              		.section	.rodata.Task_Display.str1.4,"aMS",%progbits,1
 567              		.align	2
ARM GAS  C:\Users\Admin\AppData\Local\Temp\ccOfIyoO.s 			page 23


 568              	.LC12:
 569 0000 5461736B 		.ascii	"Task Display\012\000"
 569      20446973 
 569      706C6179 
 569      0A00
 570 000e 0000     		.align	2
 571              	.LC13:
 572 0010 54656D70 		.ascii	"Temp: %d C\000"
 572      3A202564 
 572      204300
 573 001b 00       		.align	2
 574              	.LC14:
 575 001c 48756D69 		.ascii	"Humi: %d \000"
 575      3A202564 
 575      2000
 576 0026 0000     		.align	2
 577              	.LC15:
 578 0028 0A00     		.ascii	"\012\000"
 579 002a 0000     		.align	2
 580              	.LC16:
 581 002c 526F7461 		.ascii	"Rota: %d  \000"
 581      3A202564 
 581      202000
 582 0037 00       		.align	2
 583              	.LC17:
 584 0038 5761726E 		.ascii	"Warnning\000"
 584      6E696E67 
 584      00
 585 0041 000000   		.align	2
 586              	.LC18:
 587 0044 20202020 		.ascii	"          \000"
 587      20202020 
 587      202000
 588 004f 00       		.align	2
 589              	.LC19:
 590 0050 2500     		.ascii	"%\000"
 591              		.section	.text.Task_Display,"ax",%progbits
 592              		.align	1
 593              		.global	Task_Display
 594              		.syntax unified
 595              		.thumb
 596              		.thumb_func
 598              	Task_Display:
 599              	.LFB84:
 610:Core/Src/main.c ****   }
 611:Core/Src/main.c ****   /* USER CODE END Task_Servo */
 612:Core/Src/main.c **** }
 613:Core/Src/main.c **** 
 614:Core/Src/main.c **** /* USER CODE BEGIN Header_Task_Display */
 615:Core/Src/main.c **** /**
 616:Core/Src/main.c ****  * @brief Function implementing the Task3 thread.
 617:Core/Src/main.c ****  * @param argument: Not used
 618:Core/Src/main.c ****  * @retval None
 619:Core/Src/main.c ****  */
 620:Core/Src/main.c **** /* USER CODE END Header_Task_Display */
 621:Core/Src/main.c **** void Task_Display(void const * argument)
 622:Core/Src/main.c **** {
ARM GAS  C:\Users\Admin\AppData\Local\Temp\ccOfIyoO.s 			page 24


 600              		.loc 1 622 1 is_stmt 1 view -0
 601              		.cfi_startproc
 602              		@ Volatile: function does not return.
 603              		@ args = 0, pretend = 0, frame = 0
 604              		@ frame_needed = 0, uses_anonymous_args = 0
 605              	.LVL45:
 606              		.loc 1 622 1 is_stmt 0 view .LVU128
 607 0000 80B5     		push	{r7, lr}
 608              	.LCFI6:
 609              		.cfi_def_cfa_offset 8
 610              		.cfi_offset 7, -8
 611              		.cfi_offset 14, -4
 612 0002 84B0     		sub	sp, sp, #16
 613              	.LCFI7:
 614              		.cfi_def_cfa_offset 24
 615 0004 51E0     		b	.L34
 616              	.LVL46:
 617              	.L38:
 623:Core/Src/main.c ****   /* USER CODE BEGIN Task_Display */
 624:Core/Src/main.c ****   /* Infinite loop */
 625:Core/Src/main.c ****   for (;;)
 626:Core/Src/main.c ****   {
 627:Core/Src/main.c ****     osSemaphoreWait(ServoSemHandle, osWaitForever);
 628:Core/Src/main.c ****     log_data("Task Display\n");
 629:Core/Src/main.c ****     sprintf(buf_temp, "Temp: %d C", temp);
 630:Core/Src/main.c ****     sprintf(buf_humi, "Humi: %d ", humi);
 631:Core/Src/main.c ****     log_data(buf_temp);
 632:Core/Src/main.c ****     log_data("\n");
 633:Core/Src/main.c ****     log_data(buf_humi);
 634:Core/Src/main.c ****     log_data("\n");
 635:Core/Src/main.c ****     if (temp > PC_threshold)
 636:Core/Src/main.c ****     {
 637:Core/Src/main.c ****       sprintf(rota, "Rota: %d  ", 0);
 618              		.loc 1 637 7 is_stmt 1 view .LVU129
 619 0006 4D4C     		ldr	r4, .L39
 620 0008 0022     		movs	r2, #0
 621 000a 4D49     		ldr	r1, .L39+4
 622 000c 2046     		mov	r0, r4
 623 000e FFF7FEFF 		bl	sprintf
 624              	.LVL47:
 638:Core/Src/main.c ****       log_data(rota);
 625              		.loc 1 638 7 view .LVU130
 626 0012 2046     		mov	r0, r4
 627 0014 FFF7FEFF 		bl	log_data
 628              	.LVL48:
 639:Core/Src/main.c ****       log_data("\n");
 629              		.loc 1 639 7 view .LVU131
 630 0018 2846     		mov	r0, r5
 631 001a FFF7FEFF 		bl	log_data
 632              	.LVL49:
 640:Core/Src/main.c ****       ST7735_WriteString(35, 145, "Warnning", Font_7x10, ST7735_WHITE, ST7735_BLACK);
 633              		.loc 1 640 7 view .LVU132
 634 001e 494B     		ldr	r3, .L39+8
 635 0020 0022     		movs	r2, #0
 636 0022 0292     		str	r2, [sp, #8]
 637 0024 4FF6FF72 		movw	r2, #65535
 638 0028 0192     		str	r2, [sp, #4]
ARM GAS  C:\Users\Admin\AppData\Local\Temp\ccOfIyoO.s 			page 25


 639 002a 5A68     		ldr	r2, [r3, #4]
 640 002c 0092     		str	r2, [sp]
 641 002e 1B68     		ldr	r3, [r3]
 642 0030 454A     		ldr	r2, .L39+12
 643 0032 9121     		movs	r1, #145
 644 0034 2320     		movs	r0, #35
 645 0036 FFF7FEFF 		bl	ST7735_WriteString
 646              	.LVL50:
 647              	.L33:
 641:Core/Src/main.c ****     }
 642:Core/Src/main.c ****     else
 643:Core/Src/main.c ****     {
 644:Core/Src/main.c ****       sprintf(rota, "Rota: %d  ", 180);
 645:Core/Src/main.c ****       log_data(rota);
 646:Core/Src/main.c ****       log_data("\n");
 647:Core/Src/main.c ****       ST7735_WriteString(35, 145, "          ", Font_7x10, ST7735_WHITE, ST7735_BLACK);
 648:Core/Src/main.c ****     }
 649:Core/Src/main.c ****     sprintf(rota, "Rota: %d  ", PC_rota);
 648              		.loc 1 649 5 view .LVU133
 649 003a 404F     		ldr	r7, .L39
 650 003c 434B     		ldr	r3, .L39+16
 651 003e 1A68     		ldr	r2, [r3]
 652 0040 3F49     		ldr	r1, .L39+4
 653 0042 3846     		mov	r0, r7
 654 0044 FFF7FEFF 		bl	sprintf
 655              	.LVL51:
 650:Core/Src/main.c ****     ST7735_WriteString(0, 30, buf_temp, Font_11x18, ST7735_RED, ST7735_BLACK);
 656              		.loc 1 650 5 view .LVU134
 657 0048 414D     		ldr	r5, .L39+20
 658 004a 0024     		movs	r4, #0
 659 004c 0294     		str	r4, [sp, #8]
 660 004e 4FF47848 		mov	r8, #63488
 661 0052 CDF80480 		str	r8, [sp, #4]
 662 0056 6B68     		ldr	r3, [r5, #4]
 663 0058 0093     		str	r3, [sp]
 664 005a 2B68     		ldr	r3, [r5]
 665 005c 3D4A     		ldr	r2, .L39+24
 666 005e 1E21     		movs	r1, #30
 667 0060 2046     		mov	r0, r4
 668 0062 FFF7FEFF 		bl	ST7735_WriteString
 669              	.LVL52:
 651:Core/Src/main.c ****     ST7735_WriteString(0, 3 * 10 * 2, strcat(buf_humi, "%"), Font_11x18, ST7735_RED, ST7735_BLACK);
 670              		.loc 1 651 5 view .LVU135
 671              		.loc 1 651 39 is_stmt 0 view .LVU136
 672 0066 3C4E     		ldr	r6, .L39+28
 673 0068 3046     		mov	r0, r6
 674 006a FFF7FEFF 		bl	strlen
 675              	.LVL53:
 676 006e 3B4B     		ldr	r3, .L39+32
 677 0070 1B88     		ldrh	r3, [r3]	@ unaligned
 678 0072 3352     		strh	r3, [r6, r0]	@ unaligned
 679              		.loc 1 651 5 view .LVU137
 680 0074 0294     		str	r4, [sp, #8]
 681 0076 CDF80480 		str	r8, [sp, #4]
 682 007a 6B68     		ldr	r3, [r5, #4]
 683 007c 0093     		str	r3, [sp]
 684 007e 2B68     		ldr	r3, [r5]
ARM GAS  C:\Users\Admin\AppData\Local\Temp\ccOfIyoO.s 			page 26


 685 0080 3246     		mov	r2, r6
 686 0082 3C21     		movs	r1, #60
 687 0084 2046     		mov	r0, r4
 688 0086 FFF7FEFF 		bl	ST7735_WriteString
 689              	.LVL54:
 652:Core/Src/main.c ****     ST7735_WriteString(0, 3 * 10 * 3, rota, Font_11x18, ST7735_GREEN, ST7735_BLACK);
 690              		.loc 1 652 5 is_stmt 1 view .LVU138
 691 008a 0294     		str	r4, [sp, #8]
 692 008c 4FF4FC63 		mov	r3, #2016
 693 0090 0193     		str	r3, [sp, #4]
 694 0092 6B68     		ldr	r3, [r5, #4]
 695 0094 0093     		str	r3, [sp]
 696 0096 2B68     		ldr	r3, [r5]
 697 0098 3A46     		mov	r2, r7
 698 009a 5A21     		movs	r1, #90
 699 009c 2046     		mov	r0, r4
 700 009e FFF7FEFF 		bl	ST7735_WriteString
 701              	.LVL55:
 653:Core/Src/main.c ****     osDelay(500);
 702              		.loc 1 653 5 view .LVU139
 703 00a2 4FF4FA70 		mov	r0, #500
 704 00a6 FFF7FEFF 		bl	osDelay
 705              	.LVL56:
 625:Core/Src/main.c ****   {
 706              		.loc 1 625 9 view .LVU140
 707              	.L34:
 625:Core/Src/main.c ****   {
 708              		.loc 1 625 3 view .LVU141
 627:Core/Src/main.c ****     log_data("Task Display\n");
 709              		.loc 1 627 5 view .LVU142
 710 00aa 4FF0FF31 		mov	r1, #-1
 711 00ae 2C4B     		ldr	r3, .L39+36
 712 00b0 1868     		ldr	r0, [r3]
 713 00b2 FFF7FEFF 		bl	osSemaphoreWait
 714              	.LVL57:
 628:Core/Src/main.c ****     sprintf(buf_temp, "Temp: %d C", temp);
 715              		.loc 1 628 5 view .LVU143
 716 00b6 2B48     		ldr	r0, .L39+40
 717 00b8 FFF7FEFF 		bl	log_data
 718              	.LVL58:
 629:Core/Src/main.c ****     sprintf(buf_humi, "Humi: %d ", humi);
 719              		.loc 1 629 5 view .LVU144
 720 00bc 2A4C     		ldr	r4, .L39+44
 721 00be 254D     		ldr	r5, .L39+24
 722 00c0 2268     		ldr	r2, [r4]
 723 00c2 2A49     		ldr	r1, .L39+48
 724 00c4 2846     		mov	r0, r5
 725 00c6 FFF7FEFF 		bl	sprintf
 726              	.LVL59:
 630:Core/Src/main.c ****     log_data(buf_temp);
 727              		.loc 1 630 5 view .LVU145
 728 00ca 234E     		ldr	r6, .L39+28
 729 00cc 284B     		ldr	r3, .L39+52
 730 00ce 1A68     		ldr	r2, [r3]
 731 00d0 2849     		ldr	r1, .L39+56
 732 00d2 3046     		mov	r0, r6
 733 00d4 FFF7FEFF 		bl	sprintf
ARM GAS  C:\Users\Admin\AppData\Local\Temp\ccOfIyoO.s 			page 27


 734              	.LVL60:
 631:Core/Src/main.c ****     log_data("\n");
 735              		.loc 1 631 5 view .LVU146
 736 00d8 2846     		mov	r0, r5
 737 00da FFF7FEFF 		bl	log_data
 738              	.LVL61:
 632:Core/Src/main.c ****     log_data(buf_humi);
 739              		.loc 1 632 5 view .LVU147
 740 00de 264D     		ldr	r5, .L39+60
 741 00e0 2846     		mov	r0, r5
 742 00e2 FFF7FEFF 		bl	log_data
 743              	.LVL62:
 633:Core/Src/main.c ****     log_data("\n");
 744              		.loc 1 633 5 view .LVU148
 745 00e6 3046     		mov	r0, r6
 746 00e8 FFF7FEFF 		bl	log_data
 747              	.LVL63:
 634:Core/Src/main.c ****     if (temp > PC_threshold)
 748              		.loc 1 634 5 view .LVU149
 749 00ec 2846     		mov	r0, r5
 750 00ee FFF7FEFF 		bl	log_data
 751              	.LVL64:
 635:Core/Src/main.c ****     {
 752              		.loc 1 635 5 view .LVU150
 635:Core/Src/main.c ****     {
 753              		.loc 1 635 14 is_stmt 0 view .LVU151
 754 00f2 2068     		ldr	r0, [r4]
 755 00f4 FFF7FEFF 		bl	__aeabi_i2f
 756              	.LVL65:
 635:Core/Src/main.c ****     {
 757              		.loc 1 635 8 view .LVU152
 758 00f8 204B     		ldr	r3, .L39+64
 759 00fa 1968     		ldr	r1, [r3]	@ float
 760 00fc FFF7FEFF 		bl	__aeabi_fcmpgt
 761              	.LVL66:
 762 0100 0028     		cmp	r0, #0
 763 0102 80D1     		bne	.L38
 644:Core/Src/main.c ****       log_data(rota);
 764              		.loc 1 644 7 is_stmt 1 view .LVU153
 765 0104 0D4C     		ldr	r4, .L39
 766 0106 B422     		movs	r2, #180
 767 0108 0D49     		ldr	r1, .L39+4
 768 010a 2046     		mov	r0, r4
 769 010c FFF7FEFF 		bl	sprintf
 770              	.LVL67:
 645:Core/Src/main.c ****       log_data("\n");
 771              		.loc 1 645 7 view .LVU154
 772 0110 2046     		mov	r0, r4
 773 0112 FFF7FEFF 		bl	log_data
 774              	.LVL68:
 646:Core/Src/main.c ****       ST7735_WriteString(35, 145, "          ", Font_7x10, ST7735_WHITE, ST7735_BLACK);
 775              		.loc 1 646 7 view .LVU155
 776 0116 1848     		ldr	r0, .L39+60
 777 0118 FFF7FEFF 		bl	log_data
 778              	.LVL69:
 647:Core/Src/main.c ****     }
 779              		.loc 1 647 7 view .LVU156
ARM GAS  C:\Users\Admin\AppData\Local\Temp\ccOfIyoO.s 			page 28


 780 011c 094B     		ldr	r3, .L39+8
 781 011e 0022     		movs	r2, #0
 782 0120 0292     		str	r2, [sp, #8]
 783 0122 4FF6FF72 		movw	r2, #65535
 784 0126 0192     		str	r2, [sp, #4]
 785 0128 5A68     		ldr	r2, [r3, #4]
 786 012a 0092     		str	r2, [sp]
 787 012c 1B68     		ldr	r3, [r3]
 788 012e 144A     		ldr	r2, .L39+68
 789 0130 9121     		movs	r1, #145
 790 0132 2320     		movs	r0, #35
 791 0134 FFF7FEFF 		bl	ST7735_WriteString
 792              	.LVL70:
 793 0138 7FE7     		b	.L33
 794              	.L40:
 795 013a 00BF     		.align	2
 796              	.L39:
 797 013c 00000000 		.word	.LANCHOR16
 798 0140 2C000000 		.word	.LC16
 799 0144 00000000 		.word	Font_7x10
 800 0148 38000000 		.word	.LC17
 801 014c 00000000 		.word	.LANCHOR12
 802 0150 00000000 		.word	Font_11x18
 803 0154 00000000 		.word	.LANCHOR14
 804 0158 00000000 		.word	.LANCHOR15
 805 015c 50000000 		.word	.LC19
 806 0160 00000000 		.word	.LANCHOR13
 807 0164 00000000 		.word	.LC12
 808 0168 00000000 		.word	.LANCHOR6
 809 016c 10000000 		.word	.LC13
 810 0170 00000000 		.word	.LANCHOR7
 811 0174 1C000000 		.word	.LC14
 812 0178 28000000 		.word	.LC15
 813 017c 00000000 		.word	.LANCHOR11
 814 0180 44000000 		.word	.LC18
 815              		.cfi_endproc
 816              	.LFE84:
 818              		.section	.rodata.Task_Data.str1.4,"aMS",%progbits,1
 819              		.align	2
 820              	.LC20:
 821 0000 7461736B 		.ascii	"task uart\012\000"
 821      20756172 
 821      740A00
 822 000b 00       		.align	2
 823              	.LC21:
 824 000c 526F7461 		.ascii	"Rota\000"
 824      00
 825 0011 000000   		.align	2
 826              	.LC22:
 827 0014 63686563 		.ascii	"check data rota\012\000"
 827      6B206461 
 827      74612072 
 827      6F74610A 
 827      00
 828 0025 000000   		.align	2
 829              	.LC23:
 830 0028 0A504320 		.ascii	"\012PC control \000"
ARM GAS  C:\Users\Admin\AppData\Local\Temp\ccOfIyoO.s 			page 29


 830      636F6E74 
 830      726F6C20 
 830      00
 831 0035 000000   		.align	2
 832              	.LC24:
 833 0038 54687265 		.ascii	"Threshold\000"
 833      73686F6C 
 833      6400
 834 0042 0000     		.align	2
 835              	.LC25:
 836 0044 63686563 		.ascii	"check data thresh\012\000"
 836      6B206461 
 836      74612074 
 836      68726573 
 836      680A00
 837 0057 00       		.align	2
 838              	.LC27:
 839 0058 0A504320 		.ascii	"\012PC set Threshold: \000"
 839      73657420 
 839      54687265 
 839      73686F6C 
 839      643A2000 
 840              		.align	2
 841              	.LC26:
 842 006c 54687265 		.ascii	"Thres: \000"
 842      733A2000 
 843              		.section	.text.Task_Data,"ax",%progbits
 844              		.align	1
 845              		.global	Task_Data
 846              		.syntax unified
 847              		.thumb
 848              		.thumb_func
 850              	Task_Data:
 851              	.LFB85:
 654:Core/Src/main.c ****   }
 655:Core/Src/main.c ****   /* USER CODE END Task_Display */
 656:Core/Src/main.c **** }
 657:Core/Src/main.c **** 
 658:Core/Src/main.c **** /* USER CODE BEGIN Header_Task_Data */
 659:Core/Src/main.c **** /**
 660:Core/Src/main.c ****  * @brief Function implementing the Task4 thread.
 661:Core/Src/main.c ****  * @param argument: Not used
 662:Core/Src/main.c ****  * @retval None
 663:Core/Src/main.c ****  */
 664:Core/Src/main.c **** /* USER CODE END Header_Task_Data */
 665:Core/Src/main.c **** void Task_Data(void const * argument)
 666:Core/Src/main.c **** {
 852              		.loc 1 666 1 view -0
 853              		.cfi_startproc
 854              		@ Volatile: function does not return.
 855              		@ args = 0, pretend = 0, frame = 8
 856              		@ frame_needed = 0, uses_anonymous_args = 0
 857              	.LVL71:
 858              		.loc 1 666 1 is_stmt 0 view .LVU158
 859 0000 00B5     		push	{lr}
 860              	.LCFI8:
 861              		.cfi_def_cfa_offset 4
ARM GAS  C:\Users\Admin\AppData\Local\Temp\ccOfIyoO.s 			page 30


 862              		.cfi_offset 14, -4
 863 0002 87B0     		sub	sp, sp, #28
 864              	.LCFI9:
 865              		.cfi_def_cfa_offset 32
 866 0004 52E0     		b	.L44
 867              	.LVL72:
 868              	.L46:
 667:Core/Src/main.c ****   /* USER CODE BEGIN Task_Data */
 668:Core/Src/main.c ****   /* Infinite loop */
 669:Core/Src/main.c ****   for (;;)
 670:Core/Src/main.c ****   {
 671:Core/Src/main.c ****     osSemaphoreWait(IRQSemHandle, osWaitForever);
 672:Core/Src/main.c ****     log_data("task uart\n");
 673:Core/Src/main.c ****     if (strncmp(buffer_data, "Rota", 4) == 0)
 674:Core/Src/main.c ****     {
 675:Core/Src/main.c ****       log_data("check data rota\n");
 869              		.loc 1 675 7 is_stmt 1 view .LVU159
 870 0006 3548     		ldr	r0, .L48
 871 0008 FFF7FEFF 		bl	log_data
 872              	.LVL73:
 676:Core/Src/main.c ****       // Parse string
 677:Core/Src/main.c ****       //sscanf(buffer_data, "%*[^0-9]%d", &PC_rota);
 678:Core/Src/main.c ****       // control Servo
 679:Core/Src/main.c ****       sprintf(rota, "Rota: %d  ", PC_rota);
 873              		.loc 1 679 7 view .LVU160
 874 000c 344C     		ldr	r4, .L48+4
 875 000e 354B     		ldr	r3, .L48+8
 876 0010 1A68     		ldr	r2, [r3]
 877 0012 3549     		ldr	r1, .L48+12
 878 0014 2046     		mov	r0, r4
 879 0016 FFF7FEFF 		bl	sprintf
 880              	.LVL74:
 680:Core/Src/main.c ****       log_data("\nPC control ");
 881              		.loc 1 680 7 view .LVU161
 882 001a 3448     		ldr	r0, .L48+16
 883 001c FFF7FEFF 		bl	log_data
 884              	.LVL75:
 681:Core/Src/main.c ****       log_data(rota);
 885              		.loc 1 681 7 view .LVU162
 886 0020 2046     		mov	r0, r4
 887 0022 FFF7FEFF 		bl	log_data
 888              	.LVL76:
 682:Core/Src/main.c ****       ST7735_WriteString(0, 3 * 10 * 3, rota, Font_11x18, ST7735_GREEN, ST7735_BLACK);
 889              		.loc 1 682 7 view .LVU163
 890 0026 324B     		ldr	r3, .L48+20
 891 0028 0020     		movs	r0, #0
 892 002a 0290     		str	r0, [sp, #8]
 893 002c 4FF4FC62 		mov	r2, #2016
 894 0030 0192     		str	r2, [sp, #4]
 895 0032 5A68     		ldr	r2, [r3, #4]
 896 0034 0092     		str	r2, [sp]
 897 0036 1B68     		ldr	r3, [r3]
 898 0038 2246     		mov	r2, r4
 899 003a 5A21     		movs	r1, #90
 900 003c FFF7FEFF 		bl	ST7735_WriteString
 901              	.LVL77:
 902 0040 44E0     		b	.L42
ARM GAS  C:\Users\Admin\AppData\Local\Temp\ccOfIyoO.s 			page 31


 903              	.L47:
 904              	.LBB7:
 683:Core/Src/main.c ****     }
 684:Core/Src/main.c ****     if (strncmp(buffer_data, "Threshold", strlen("Threshold")) == 0)
 685:Core/Src/main.c ****     {
 686:Core/Src/main.c ****       log_data("check data thresh\n");
 905              		.loc 1 686 7 view .LVU164
 906 0042 2C48     		ldr	r0, .L48+24
 907 0044 FFF7FEFF 		bl	log_data
 908              	.LVL78:
 687:Core/Src/main.c ****       char str_buf[] = "Thres: ";
 909              		.loc 1 687 7 view .LVU165
 910              		.loc 1 687 12 is_stmt 0 view .LVU166
 911 0048 2B4B     		ldr	r3, .L48+28
 912 004a 04AC     		add	r4, sp, #16
 913 004c 93E80300 		ldm	r3, {r0, r1}
 914 0050 84E80300 		stm	r4, {r0, r1}
 688:Core/Src/main.c ****       // Parse string
 689:Core/Src/main.c ****       //sscanf(buffer_data, "%s%s", label_thres, str_thres);
 690:Core/Src/main.c ****       // control Servo
 691:Core/Src/main.c ****       PC_threshold = atof(str_thres);
 915              		.loc 1 691 7 is_stmt 1 view .LVU167
 916              		.loc 1 691 22 is_stmt 0 view .LVU168
 917 0054 294D     		ldr	r5, .L48+32
 918 0056 2846     		mov	r0, r5
 919 0058 FFF7FEFF 		bl	atof
 920              	.LVL79:
 921 005c FFF7FEFF 		bl	__aeabi_d2f
 922              	.LVL80:
 923              		.loc 1 691 20 view .LVU169
 924 0060 274B     		ldr	r3, .L48+36
 925 0062 1860     		str	r0, [r3]	@ float
 692:Core/Src/main.c ****       strcat(str_buf, str_thres);
 926              		.loc 1 692 7 is_stmt 1 view .LVU170
 927 0064 2946     		mov	r1, r5
 928 0066 2046     		mov	r0, r4
 929 0068 FFF7FEFF 		bl	strcat
 930              	.LVL81:
 693:Core/Src/main.c ****       log_data("\nPC set Threshold: ");
 931              		.loc 1 693 7 view .LVU171
 932 006c 2548     		ldr	r0, .L48+40
 933 006e FFF7FEFF 		bl	log_data
 934              	.LVL82:
 694:Core/Src/main.c ****       log_data(str_thres);
 935              		.loc 1 694 7 view .LVU172
 936 0072 2846     		mov	r0, r5
 937 0074 FFF7FEFF 		bl	log_data
 938              	.LVL83:
 695:Core/Src/main.c ****       ST7735_WriteString(0, 3 * 10 * 4, str_buf, Font_11x18, ST7735_GREEN, ST7735_BLACK);
 939              		.loc 1 695 7 view .LVU173
 940 0078 1D4B     		ldr	r3, .L48+20
 941 007a 0020     		movs	r0, #0
 942 007c 0290     		str	r0, [sp, #8]
 943 007e 4FF4FC62 		mov	r2, #2016
 944 0082 0192     		str	r2, [sp, #4]
 945 0084 5A68     		ldr	r2, [r3, #4]
 946 0086 0092     		str	r2, [sp]
ARM GAS  C:\Users\Admin\AppData\Local\Temp\ccOfIyoO.s 			page 32


 947 0088 1B68     		ldr	r3, [r3]
 948 008a 2246     		mov	r2, r4
 949 008c 7821     		movs	r1, #120
 950 008e FFF7FEFF 		bl	ST7735_WriteString
 951              	.LVL84:
 952              	.L43:
 953              	.LBE7:
 696:Core/Src/main.c ****     }
 697:Core/Src/main.c ****     memset(buffer_data, '\0', sizeof(buffer_data));
 954              		.loc 1 697 5 view .LVU174
 955 0092 3222     		movs	r2, #50
 956 0094 0021     		movs	r1, #0
 957 0096 1C48     		ldr	r0, .L48+44
 958 0098 FFF7FEFF 		bl	memset
 959              	.LVL85:
 698:Core/Src/main.c ****     osSemaphoreRelease(DataSemHandle);
 960              		.loc 1 698 5 view .LVU175
 961 009c 1B4B     		ldr	r3, .L48+48
 962 009e 1868     		ldr	r0, [r3]
 963 00a0 FFF7FEFF 		bl	osSemaphoreRelease
 964              	.LVL86:
 699:Core/Src/main.c ****     osDelay(500);
 965              		.loc 1 699 5 view .LVU176
 966 00a4 4FF4FA70 		mov	r0, #500
 967 00a8 FFF7FEFF 		bl	osDelay
 968              	.LVL87:
 669:Core/Src/main.c ****   {
 969              		.loc 1 669 9 view .LVU177
 970              	.L44:
 669:Core/Src/main.c ****   {
 971              		.loc 1 669 3 view .LVU178
 671:Core/Src/main.c ****     log_data("task uart\n");
 972              		.loc 1 671 5 view .LVU179
 973 00ac 4FF0FF31 		mov	r1, #-1
 974 00b0 174B     		ldr	r3, .L48+52
 975 00b2 1868     		ldr	r0, [r3]
 976 00b4 FFF7FEFF 		bl	osSemaphoreWait
 977              	.LVL88:
 672:Core/Src/main.c ****     if (strncmp(buffer_data, "Rota", 4) == 0)
 978              		.loc 1 672 5 view .LVU180
 979 00b8 1648     		ldr	r0, .L48+56
 980 00ba FFF7FEFF 		bl	log_data
 981              	.LVL89:
 673:Core/Src/main.c ****     {
 982              		.loc 1 673 5 view .LVU181
 673:Core/Src/main.c ****     {
 983              		.loc 1 673 9 is_stmt 0 view .LVU182
 984 00be 0422     		movs	r2, #4
 985 00c0 1549     		ldr	r1, .L48+60
 986 00c2 1148     		ldr	r0, .L48+44
 987 00c4 FFF7FEFF 		bl	strncmp
 988              	.LVL90:
 673:Core/Src/main.c ****     {
 989              		.loc 1 673 8 view .LVU183
 990 00c8 0028     		cmp	r0, #0
 991 00ca 9CD0     		beq	.L46
 992              	.L42:
ARM GAS  C:\Users\Admin\AppData\Local\Temp\ccOfIyoO.s 			page 33


 684:Core/Src/main.c ****     {
 993              		.loc 1 684 5 is_stmt 1 view .LVU184
 684:Core/Src/main.c ****     {
 994              		.loc 1 684 9 is_stmt 0 view .LVU185
 995 00cc 0922     		movs	r2, #9
 996 00ce 1349     		ldr	r1, .L48+64
 997 00d0 0D48     		ldr	r0, .L48+44
 998 00d2 FFF7FEFF 		bl	strncmp
 999              	.LVL91:
 684:Core/Src/main.c ****     {
 1000              		.loc 1 684 8 view .LVU186
 1001 00d6 0028     		cmp	r0, #0
 1002 00d8 B3D0     		beq	.L47
 1003 00da DAE7     		b	.L43
 1004              	.L49:
 1005              		.align	2
 1006              	.L48:
 1007 00dc 14000000 		.word	.LC22
 1008 00e0 00000000 		.word	.LANCHOR16
 1009 00e4 00000000 		.word	.LANCHOR12
 1010 00e8 2C000000 		.word	.LC16
 1011 00ec 28000000 		.word	.LC23
 1012 00f0 00000000 		.word	Font_11x18
 1013 00f4 44000000 		.word	.LC25
 1014 00f8 6C000000 		.word	.LC26
 1015 00fc 00000000 		.word	.LANCHOR19
 1016 0100 00000000 		.word	.LANCHOR11
 1017 0104 58000000 		.word	.LC27
 1018 0108 00000000 		.word	.LANCHOR18
 1019 010c 00000000 		.word	.LANCHOR9
 1020 0110 00000000 		.word	.LANCHOR17
 1021 0114 00000000 		.word	.LC20
 1022 0118 0C000000 		.word	.LC21
 1023 011c 38000000 		.word	.LC24
 1024              		.cfi_endproc
 1025              	.LFE85:
 1027              		.section	.rodata.HAL_UART_RxCpltCallback.str1.4,"aMS",%progbits,1
 1028              		.align	2
 1029              	.LC28:
 1030 0000 6D616E75 		.ascii	"manual\000"
 1030      616C00
 1031 0007 00       		.align	2
 1032              	.LC29:
 1033 0008 6175746F 		.ascii	"auto\000"
 1033      00
 1034 000d 000000   		.align	2
 1035              	.LC30:
 1036 0010 252A5B5E 		.ascii	"%*[^0-9]%d\000"
 1036      302D395D 
 1036      256400
 1037 001b 00       		.align	2
 1038              	.LC31:
 1039 001c 25732573 		.ascii	"%s%s\000"
 1039      00
 1040              		.section	.text.HAL_UART_RxCpltCallback,"ax",%progbits
 1041              		.align	1
 1042              		.global	HAL_UART_RxCpltCallback
ARM GAS  C:\Users\Admin\AppData\Local\Temp\ccOfIyoO.s 			page 34


 1043              		.syntax unified
 1044              		.thumb
 1045              		.thumb_func
 1047              	HAL_UART_RxCpltCallback:
 1048              	.LVL92:
 1049              	.LFB74:
 124:Core/Src/main.c ****   if (huart == &huart3)
 1050              		.loc 1 124 1 is_stmt 1 view -0
 1051              		.cfi_startproc
 1052              		@ args = 0, pretend = 0, frame = 0
 1053              		@ frame_needed = 0, uses_anonymous_args = 0
 124:Core/Src/main.c ****   if (huart == &huart3)
 1054              		.loc 1 124 1 is_stmt 0 view .LVU188
 1055 0000 08B5     		push	{r3, lr}
 1056              	.LCFI10:
 1057              		.cfi_def_cfa_offset 8
 1058              		.cfi_offset 3, -8
 1059              		.cfi_offset 14, -4
 125:Core/Src/main.c ****   {
 1060              		.loc 1 125 3 is_stmt 1 view .LVU189
 125:Core/Src/main.c ****   {
 1061              		.loc 1 125 6 is_stmt 0 view .LVU190
 1062 0002 254B     		ldr	r3, .L63
 1063 0004 8342     		cmp	r3, r0
 1064 0006 00D0     		beq	.L59
 1065              	.LVL93:
 1066              	.L50:
 159:Core/Src/main.c **** /* USER CODE END 0 */
 1067              		.loc 1 159 1 view .LVU191
 1068 0008 08BD     		pop	{r3, pc}
 1069              	.LVL94:
 1070              	.L59:
 127:Core/Src/main.c ****     {
 1071              		.loc 1 127 5 is_stmt 1 view .LVU192
 127:Core/Src/main.c ****     {
 1072              		.loc 1 127 17 is_stmt 0 view .LVU193
 1073 000a 244B     		ldr	r3, .L63+4
 1074 000c 1B78     		ldrb	r3, [r3]	@ zero_extendqisi2
 127:Core/Src/main.c ****     {
 1075              		.loc 1 127 8 view .LVU194
 1076 000e 0D2B     		cmp	r3, #13
 1077 0010 0CD0     		beq	.L60
 153:Core/Src/main.c ****       Rx_index++;
 1078              		.loc 1 153 7 is_stmt 1 view .LVU195
 153:Core/Src/main.c ****       Rx_index++;
 1079              		.loc 1 153 18 is_stmt 0 view .LVU196
 1080 0012 234A     		ldr	r2, .L63+8
 1081 0014 1168     		ldr	r1, [r2]
 153:Core/Src/main.c ****       Rx_index++;
 1082              		.loc 1 153 29 view .LVU197
 1083 0016 2348     		ldr	r0, .L63+12
 1084              	.LVL95:
 153:Core/Src/main.c ****       Rx_index++;
 1085              		.loc 1 153 29 view .LVU198
 1086 0018 4354     		strb	r3, [r0, r1]
 154:Core/Src/main.c ****       // log_data((char*)Rx_data);
 1087              		.loc 1 154 7 is_stmt 1 view .LVU199
ARM GAS  C:\Users\Admin\AppData\Local\Temp\ccOfIyoO.s 			page 35


 154:Core/Src/main.c ****       // log_data((char*)Rx_data);
 1088              		.loc 1 154 15 is_stmt 0 view .LVU200
 1089 001a 1368     		ldr	r3, [r2]
 1090 001c 0133     		adds	r3, r3, #1
 1091 001e 1360     		str	r3, [r2]
 1092              	.L57:
 157:Core/Src/main.c ****   }
 1093              		.loc 1 157 5 is_stmt 1 view .LVU201
 1094 0020 0122     		movs	r2, #1
 1095 0022 1E49     		ldr	r1, .L63+4
 1096 0024 1C48     		ldr	r0, .L63
 1097 0026 FFF7FEFF 		bl	HAL_UART_Receive_IT
 1098              	.LVL96:
 159:Core/Src/main.c **** /* USER CODE END 0 */
 1099              		.loc 1 159 1 is_stmt 0 view .LVU202
 1100 002a EDE7     		b	.L50
 1101              	.LVL97:
 1102              	.L60:
 129:Core/Src/main.c ****       Rx_index = 0;
 1103              		.loc 1 129 7 is_stmt 1 view .LVU203
 129:Core/Src/main.c ****       Rx_index = 0;
 1104              		.loc 1 129 18 is_stmt 0 view .LVU204
 1105 002c 1C4B     		ldr	r3, .L63+8
 1106 002e 1968     		ldr	r1, [r3]
 129:Core/Src/main.c ****       Rx_index = 0;
 1107              		.loc 1 129 29 view .LVU205
 1108 0030 1C48     		ldr	r0, .L63+12
 1109              	.LVL98:
 129:Core/Src/main.c ****       Rx_index = 0;
 1110              		.loc 1 129 29 view .LVU206
 1111 0032 0022     		movs	r2, #0
 1112 0034 4254     		strb	r2, [r0, r1]
 130:Core/Src/main.c ****       if (strcmp(buffer_data, "manual") == 0)
 1113              		.loc 1 130 7 is_stmt 1 view .LVU207
 130:Core/Src/main.c ****       if (strcmp(buffer_data, "manual") == 0)
 1114              		.loc 1 130 16 is_stmt 0 view .LVU208
 1115 0036 1A60     		str	r2, [r3]
 131:Core/Src/main.c ****       {
 1116              		.loc 1 131 7 is_stmt 1 view .LVU209
 131:Core/Src/main.c ****       {
 1117              		.loc 1 131 11 is_stmt 0 view .LVU210
 1118 0038 1B49     		ldr	r1, .L63+16
 1119 003a FFF7FEFF 		bl	strcmp
 1120              	.LVL99:
 131:Core/Src/main.c ****       {
 1121              		.loc 1 131 10 view .LVU211
 1122 003e 10B9     		cbnz	r0, .L53
 133:Core/Src/main.c ****       }
 1123              		.loc 1 133 9 is_stmt 1 view .LVU212
 133:Core/Src/main.c ****       }
 1124              		.loc 1 133 14 is_stmt 0 view .LVU213
 1125 0040 1A4B     		ldr	r3, .L63+20
 1126 0042 0122     		movs	r2, #1
 1127 0044 1A60     		str	r2, [r3]
 1128              	.L53:
 135:Core/Src/main.c ****       {
 1129              		.loc 1 135 7 is_stmt 1 view .LVU214
ARM GAS  C:\Users\Admin\AppData\Local\Temp\ccOfIyoO.s 			page 36


 135:Core/Src/main.c ****       {
 1130              		.loc 1 135 11 is_stmt 0 view .LVU215
 1131 0046 1A49     		ldr	r1, .L63+24
 1132 0048 1648     		ldr	r0, .L63+12
 1133 004a FFF7FEFF 		bl	strcmp
 1134              	.LVL100:
 135:Core/Src/main.c ****       {
 1135              		.loc 1 135 10 view .LVU216
 1136 004e 10B9     		cbnz	r0, .L54
 137:Core/Src/main.c ****       }
 1137              		.loc 1 137 9 is_stmt 1 view .LVU217
 137:Core/Src/main.c ****       }
 1138              		.loc 1 137 14 is_stmt 0 view .LVU218
 1139 0050 164B     		ldr	r3, .L63+20
 1140 0052 0022     		movs	r2, #0
 1141 0054 1A60     		str	r2, [r3]
 1142              	.L54:
 139:Core/Src/main.c ****       {
 1143              		.loc 1 139 7 is_stmt 1 view .LVU219
 139:Core/Src/main.c ****       {
 1144              		.loc 1 139 11 is_stmt 0 view .LVU220
 1145 0056 0422     		movs	r2, #4
 1146 0058 1649     		ldr	r1, .L63+28
 1147 005a 1248     		ldr	r0, .L63+12
 1148 005c FFF7FEFF 		bl	strncmp
 1149              	.LVL101:
 139:Core/Src/main.c ****       {
 1150              		.loc 1 139 10 view .LVU221
 1151 0060 50B1     		cbz	r0, .L61
 1152              	.L55:
 144:Core/Src/main.c ****       {
 1153              		.loc 1 144 7 is_stmt 1 view .LVU222
 144:Core/Src/main.c ****       {
 1154              		.loc 1 144 11 is_stmt 0 view .LVU223
 1155 0062 0922     		movs	r2, #9
 1156 0064 1449     		ldr	r1, .L63+32
 1157 0066 0F48     		ldr	r0, .L63+12
 1158 0068 FFF7FEFF 		bl	strncmp
 1159              	.LVL102:
 144:Core/Src/main.c ****       {
 1160              		.loc 1 144 10 view .LVU224
 1161 006c 50B1     		cbz	r0, .L62
 1162              	.L56:
 149:Core/Src/main.c ****     }
 1163              		.loc 1 149 7 is_stmt 1 view .LVU225
 1164 006e 134B     		ldr	r3, .L63+36
 1165 0070 1868     		ldr	r0, [r3]
 1166 0072 FFF7FEFF 		bl	osSemaphoreRelease
 1167              	.LVL103:
 1168 0076 D3E7     		b	.L57
 1169              	.L61:
 142:Core/Src/main.c ****       }
 1170              		.loc 1 142 9 view .LVU226
 1171 0078 114A     		ldr	r2, .L63+40
 1172 007a 1249     		ldr	r1, .L63+44
 1173 007c 0948     		ldr	r0, .L63+12
 1174 007e FFF7FEFF 		bl	sscanf
ARM GAS  C:\Users\Admin\AppData\Local\Temp\ccOfIyoO.s 			page 37


 1175              	.LVL104:
 1176 0082 EEE7     		b	.L55
 1177              	.L62:
 146:Core/Src/main.c ****         sscanf(buffer_data, "%s%s", label_thres, str_thres);
 1178              		.loc 1 146 9 view .LVU227
 1179 0084 1048     		ldr	r0, .L63+48
 1180 0086 FFF7FEFF 		bl	log_data
 1181              	.LVL105:
 147:Core/Src/main.c ****       }
 1182              		.loc 1 147 9 view .LVU228
 1183 008a 104B     		ldr	r3, .L63+52
 1184 008c 104A     		ldr	r2, .L63+56
 1185 008e 1149     		ldr	r1, .L63+60
 1186 0090 0448     		ldr	r0, .L63+12
 1187 0092 FFF7FEFF 		bl	sscanf
 1188              	.LVL106:
 1189 0096 EAE7     		b	.L56
 1190              	.L64:
 1191              		.align	2
 1192              	.L63:
 1193 0098 00000000 		.word	.LANCHOR0
 1194 009c 00000000 		.word	.LANCHOR20
 1195 00a0 00000000 		.word	.LANCHOR21
 1196 00a4 00000000 		.word	.LANCHOR18
 1197 00a8 00000000 		.word	.LC28
 1198 00ac 00000000 		.word	.LANCHOR10
 1199 00b0 08000000 		.word	.LC29
 1200 00b4 0C000000 		.word	.LC21
 1201 00b8 38000000 		.word	.LC24
 1202 00bc 00000000 		.word	.LANCHOR17
 1203 00c0 00000000 		.word	.LANCHOR12
 1204 00c4 10000000 		.word	.LC30
 1205 00c8 44000000 		.word	.LC25
 1206 00cc 00000000 		.word	.LANCHOR19
 1207 00d0 00000000 		.word	.LANCHOR22
 1208 00d4 1C000000 		.word	.LC31
 1209              		.cfi_endproc
 1210              	.LFE74:
 1212              		.section	.text.HAL_TIM_PeriodElapsedCallback,"ax",%progbits
 1213              		.align	1
 1214              		.global	HAL_TIM_PeriodElapsedCallback
 1215              		.syntax unified
 1216              		.thumb
 1217              		.thumb_func
 1219              	HAL_TIM_PeriodElapsedCallback:
 1220              	.LVL107:
 1221              	.LFB86:
 700:Core/Src/main.c ****   }
 701:Core/Src/main.c ****   /* USER CODE END Task_Data */
 702:Core/Src/main.c **** }
 703:Core/Src/main.c **** 
 704:Core/Src/main.c **** /**
 705:Core/Src/main.c ****   * @brief  Period elapsed callback in non blocking mode
 706:Core/Src/main.c ****   * @note   This function is called  when TIM1 interrupt took place, inside
 707:Core/Src/main.c ****   * HAL_TIM_IRQHandler(). It makes a direct call to HAL_IncTick() to increment
 708:Core/Src/main.c ****   * a global variable "uwTick" used as application time base.
 709:Core/Src/main.c ****   * @param  htim : TIM handle
ARM GAS  C:\Users\Admin\AppData\Local\Temp\ccOfIyoO.s 			page 38


 710:Core/Src/main.c ****   * @retval None
 711:Core/Src/main.c ****   */
 712:Core/Src/main.c **** void HAL_TIM_PeriodElapsedCallback(TIM_HandleTypeDef *htim)
 713:Core/Src/main.c **** {
 1222              		.loc 1 713 1 view -0
 1223              		.cfi_startproc
 1224              		@ args = 0, pretend = 0, frame = 0
 1225              		@ frame_needed = 0, uses_anonymous_args = 0
 1226              		.loc 1 713 1 is_stmt 0 view .LVU230
 1227 0000 08B5     		push	{r3, lr}
 1228              	.LCFI11:
 1229              		.cfi_def_cfa_offset 8
 1230              		.cfi_offset 3, -8
 1231              		.cfi_offset 14, -4
 714:Core/Src/main.c ****   /* USER CODE BEGIN Callback 0 */
 715:Core/Src/main.c **** 
 716:Core/Src/main.c ****   /* USER CODE END Callback 0 */
 717:Core/Src/main.c ****   if (htim->Instance == TIM1) {
 1232              		.loc 1 717 3 is_stmt 1 view .LVU231
 1233              		.loc 1 717 11 is_stmt 0 view .LVU232
 1234 0002 0268     		ldr	r2, [r0]
 1235              		.loc 1 717 6 view .LVU233
 1236 0004 034B     		ldr	r3, .L69
 1237 0006 9A42     		cmp	r2, r3
 1238 0008 00D0     		beq	.L68
 1239              	.LVL108:
 1240              	.L65:
 718:Core/Src/main.c ****     HAL_IncTick();
 719:Core/Src/main.c ****   }
 720:Core/Src/main.c ****   /* USER CODE BEGIN Callback 1 */
 721:Core/Src/main.c **** 
 722:Core/Src/main.c ****   /* USER CODE END Callback 1 */
 723:Core/Src/main.c **** }
 1241              		.loc 1 723 1 view .LVU234
 1242 000a 08BD     		pop	{r3, pc}
 1243              	.LVL109:
 1244              	.L68:
 718:Core/Src/main.c ****     HAL_IncTick();
 1245              		.loc 1 718 5 is_stmt 1 view .LVU235
 1246 000c FFF7FEFF 		bl	HAL_IncTick
 1247              	.LVL110:
 1248              		.loc 1 723 1 is_stmt 0 view .LVU236
 1249 0010 FBE7     		b	.L65
 1250              	.L70:
 1251 0012 00BF     		.align	2
 1252              	.L69:
 1253 0014 002C0140 		.word	1073818624
 1254              		.cfi_endproc
 1255              	.LFE86:
 1257              		.section	.text.Error_Handler,"ax",%progbits
 1258              		.align	1
 1259              		.global	Error_Handler
 1260              		.syntax unified
 1261              		.thumb
 1262              		.thumb_func
 1264              	Error_Handler:
 1265              	.LFB87:
ARM GAS  C:\Users\Admin\AppData\Local\Temp\ccOfIyoO.s 			page 39


 724:Core/Src/main.c **** 
 725:Core/Src/main.c **** /**
 726:Core/Src/main.c ****   * @brief  This function is executed in case of error occurrence.
 727:Core/Src/main.c ****   * @retval None
 728:Core/Src/main.c ****   */
 729:Core/Src/main.c **** void Error_Handler(void)
 730:Core/Src/main.c **** {
 1266              		.loc 1 730 1 is_stmt 1 view -0
 1267              		.cfi_startproc
 1268              		@ Volatile: function does not return.
 1269              		@ args = 0, pretend = 0, frame = 0
 1270              		@ frame_needed = 0, uses_anonymous_args = 0
 1271              		@ link register save eliminated.
 731:Core/Src/main.c ****   /* USER CODE BEGIN Error_Handler_Debug */
 732:Core/Src/main.c ****   /* User can add his own implementation to report the HAL error return state */
 733:Core/Src/main.c ****   __disable_irq();
 1272              		.loc 1 733 3 view .LVU238
 1273              	.LBB8:
 1274              	.LBI8:
 1275              		.file 2 "Drivers/CMSIS/Include/cmsis_gcc.h"
   1:Drivers/CMSIS/Include/cmsis_gcc.h **** /**************************************************************************//**
   2:Drivers/CMSIS/Include/cmsis_gcc.h ****  * @file     cmsis_gcc.h
   3:Drivers/CMSIS/Include/cmsis_gcc.h ****  * @brief    CMSIS compiler GCC header file
   4:Drivers/CMSIS/Include/cmsis_gcc.h ****  * @version  V5.0.4
   5:Drivers/CMSIS/Include/cmsis_gcc.h ****  * @date     09. April 2018
   6:Drivers/CMSIS/Include/cmsis_gcc.h ****  ******************************************************************************/
   7:Drivers/CMSIS/Include/cmsis_gcc.h **** /*
   8:Drivers/CMSIS/Include/cmsis_gcc.h ****  * Copyright (c) 2009-2018 Arm Limited. All rights reserved.
   9:Drivers/CMSIS/Include/cmsis_gcc.h ****  *
  10:Drivers/CMSIS/Include/cmsis_gcc.h ****  * SPDX-License-Identifier: Apache-2.0
  11:Drivers/CMSIS/Include/cmsis_gcc.h ****  *
  12:Drivers/CMSIS/Include/cmsis_gcc.h ****  * Licensed under the Apache License, Version 2.0 (the License); you may
  13:Drivers/CMSIS/Include/cmsis_gcc.h ****  * not use this file except in compliance with the License.
  14:Drivers/CMSIS/Include/cmsis_gcc.h ****  * You may obtain a copy of the License at
  15:Drivers/CMSIS/Include/cmsis_gcc.h ****  *
  16:Drivers/CMSIS/Include/cmsis_gcc.h ****  * www.apache.org/licenses/LICENSE-2.0
  17:Drivers/CMSIS/Include/cmsis_gcc.h ****  *
  18:Drivers/CMSIS/Include/cmsis_gcc.h ****  * Unless required by applicable law or agreed to in writing, software
  19:Drivers/CMSIS/Include/cmsis_gcc.h ****  * distributed under the License is distributed on an AS IS BASIS, WITHOUT
  20:Drivers/CMSIS/Include/cmsis_gcc.h ****  * WARRANTIES OR CONDITIONS OF ANY KIND, either express or implied.
  21:Drivers/CMSIS/Include/cmsis_gcc.h ****  * See the License for the specific language governing permissions and
  22:Drivers/CMSIS/Include/cmsis_gcc.h ****  * limitations under the License.
  23:Drivers/CMSIS/Include/cmsis_gcc.h ****  */
  24:Drivers/CMSIS/Include/cmsis_gcc.h **** 
  25:Drivers/CMSIS/Include/cmsis_gcc.h **** #ifndef __CMSIS_GCC_H
  26:Drivers/CMSIS/Include/cmsis_gcc.h **** #define __CMSIS_GCC_H
  27:Drivers/CMSIS/Include/cmsis_gcc.h **** 
  28:Drivers/CMSIS/Include/cmsis_gcc.h **** /* ignore some GCC warnings */
  29:Drivers/CMSIS/Include/cmsis_gcc.h **** #pragma GCC diagnostic push
  30:Drivers/CMSIS/Include/cmsis_gcc.h **** #pragma GCC diagnostic ignored "-Wsign-conversion"
  31:Drivers/CMSIS/Include/cmsis_gcc.h **** #pragma GCC diagnostic ignored "-Wconversion"
  32:Drivers/CMSIS/Include/cmsis_gcc.h **** #pragma GCC diagnostic ignored "-Wunused-parameter"
  33:Drivers/CMSIS/Include/cmsis_gcc.h **** 
  34:Drivers/CMSIS/Include/cmsis_gcc.h **** /* Fallback for __has_builtin */
  35:Drivers/CMSIS/Include/cmsis_gcc.h **** #ifndef __has_builtin
  36:Drivers/CMSIS/Include/cmsis_gcc.h ****   #define __has_builtin(x) (0)
  37:Drivers/CMSIS/Include/cmsis_gcc.h **** #endif
ARM GAS  C:\Users\Admin\AppData\Local\Temp\ccOfIyoO.s 			page 40


  38:Drivers/CMSIS/Include/cmsis_gcc.h **** 
  39:Drivers/CMSIS/Include/cmsis_gcc.h **** /* CMSIS compiler specific defines */
  40:Drivers/CMSIS/Include/cmsis_gcc.h **** #ifndef   __ASM
  41:Drivers/CMSIS/Include/cmsis_gcc.h ****   #define __ASM                                  __asm
  42:Drivers/CMSIS/Include/cmsis_gcc.h **** #endif
  43:Drivers/CMSIS/Include/cmsis_gcc.h **** #ifndef   __INLINE
  44:Drivers/CMSIS/Include/cmsis_gcc.h ****   #define __INLINE                               inline
  45:Drivers/CMSIS/Include/cmsis_gcc.h **** #endif
  46:Drivers/CMSIS/Include/cmsis_gcc.h **** #ifndef   __STATIC_INLINE
  47:Drivers/CMSIS/Include/cmsis_gcc.h ****   #define __STATIC_INLINE                        static inline
  48:Drivers/CMSIS/Include/cmsis_gcc.h **** #endif
  49:Drivers/CMSIS/Include/cmsis_gcc.h **** #ifndef   __STATIC_FORCEINLINE                 
  50:Drivers/CMSIS/Include/cmsis_gcc.h ****   #define __STATIC_FORCEINLINE                   __attribute__((always_inline)) static inline
  51:Drivers/CMSIS/Include/cmsis_gcc.h **** #endif                                           
  52:Drivers/CMSIS/Include/cmsis_gcc.h **** #ifndef   __NO_RETURN
  53:Drivers/CMSIS/Include/cmsis_gcc.h ****   #define __NO_RETURN                            __attribute__((__noreturn__))
  54:Drivers/CMSIS/Include/cmsis_gcc.h **** #endif
  55:Drivers/CMSIS/Include/cmsis_gcc.h **** #ifndef   __USED
  56:Drivers/CMSIS/Include/cmsis_gcc.h ****   #define __USED                                 __attribute__((used))
  57:Drivers/CMSIS/Include/cmsis_gcc.h **** #endif
  58:Drivers/CMSIS/Include/cmsis_gcc.h **** #ifndef   __WEAK
  59:Drivers/CMSIS/Include/cmsis_gcc.h ****   #define __WEAK                                 __attribute__((weak))
  60:Drivers/CMSIS/Include/cmsis_gcc.h **** #endif
  61:Drivers/CMSIS/Include/cmsis_gcc.h **** #ifndef   __PACKED
  62:Drivers/CMSIS/Include/cmsis_gcc.h ****   #define __PACKED                               __attribute__((packed, aligned(1)))
  63:Drivers/CMSIS/Include/cmsis_gcc.h **** #endif
  64:Drivers/CMSIS/Include/cmsis_gcc.h **** #ifndef   __PACKED_STRUCT
  65:Drivers/CMSIS/Include/cmsis_gcc.h ****   #define __PACKED_STRUCT                        struct __attribute__((packed, aligned(1)))
  66:Drivers/CMSIS/Include/cmsis_gcc.h **** #endif
  67:Drivers/CMSIS/Include/cmsis_gcc.h **** #ifndef   __PACKED_UNION
  68:Drivers/CMSIS/Include/cmsis_gcc.h ****   #define __PACKED_UNION                         union __attribute__((packed, aligned(1)))
  69:Drivers/CMSIS/Include/cmsis_gcc.h **** #endif
  70:Drivers/CMSIS/Include/cmsis_gcc.h **** #ifndef   __UNALIGNED_UINT32        /* deprecated */
  71:Drivers/CMSIS/Include/cmsis_gcc.h ****   #pragma GCC diagnostic push
  72:Drivers/CMSIS/Include/cmsis_gcc.h ****   #pragma GCC diagnostic ignored "-Wpacked"
  73:Drivers/CMSIS/Include/cmsis_gcc.h ****   #pragma GCC diagnostic ignored "-Wattributes"
  74:Drivers/CMSIS/Include/cmsis_gcc.h ****   struct __attribute__((packed)) T_UINT32 { uint32_t v; };
  75:Drivers/CMSIS/Include/cmsis_gcc.h ****   #pragma GCC diagnostic pop
  76:Drivers/CMSIS/Include/cmsis_gcc.h ****   #define __UNALIGNED_UINT32(x)                  (((struct T_UINT32 *)(x))->v)
  77:Drivers/CMSIS/Include/cmsis_gcc.h **** #endif
  78:Drivers/CMSIS/Include/cmsis_gcc.h **** #ifndef   __UNALIGNED_UINT16_WRITE
  79:Drivers/CMSIS/Include/cmsis_gcc.h ****   #pragma GCC diagnostic push
  80:Drivers/CMSIS/Include/cmsis_gcc.h ****   #pragma GCC diagnostic ignored "-Wpacked"
  81:Drivers/CMSIS/Include/cmsis_gcc.h ****   #pragma GCC diagnostic ignored "-Wattributes"
  82:Drivers/CMSIS/Include/cmsis_gcc.h ****   __PACKED_STRUCT T_UINT16_WRITE { uint16_t v; };
  83:Drivers/CMSIS/Include/cmsis_gcc.h ****   #pragma GCC diagnostic pop
  84:Drivers/CMSIS/Include/cmsis_gcc.h ****   #define __UNALIGNED_UINT16_WRITE(addr, val)    (void)((((struct T_UINT16_WRITE *)(void *)(addr))-
  85:Drivers/CMSIS/Include/cmsis_gcc.h **** #endif
  86:Drivers/CMSIS/Include/cmsis_gcc.h **** #ifndef   __UNALIGNED_UINT16_READ
  87:Drivers/CMSIS/Include/cmsis_gcc.h ****   #pragma GCC diagnostic push
  88:Drivers/CMSIS/Include/cmsis_gcc.h ****   #pragma GCC diagnostic ignored "-Wpacked"
  89:Drivers/CMSIS/Include/cmsis_gcc.h ****   #pragma GCC diagnostic ignored "-Wattributes"
  90:Drivers/CMSIS/Include/cmsis_gcc.h ****   __PACKED_STRUCT T_UINT16_READ { uint16_t v; };
  91:Drivers/CMSIS/Include/cmsis_gcc.h ****   #pragma GCC diagnostic pop
  92:Drivers/CMSIS/Include/cmsis_gcc.h ****   #define __UNALIGNED_UINT16_READ(addr)          (((const struct T_UINT16_READ *)(const void *)(add
  93:Drivers/CMSIS/Include/cmsis_gcc.h **** #endif
  94:Drivers/CMSIS/Include/cmsis_gcc.h **** #ifndef   __UNALIGNED_UINT32_WRITE
ARM GAS  C:\Users\Admin\AppData\Local\Temp\ccOfIyoO.s 			page 41


  95:Drivers/CMSIS/Include/cmsis_gcc.h ****   #pragma GCC diagnostic push
  96:Drivers/CMSIS/Include/cmsis_gcc.h ****   #pragma GCC diagnostic ignored "-Wpacked"
  97:Drivers/CMSIS/Include/cmsis_gcc.h ****   #pragma GCC diagnostic ignored "-Wattributes"
  98:Drivers/CMSIS/Include/cmsis_gcc.h ****   __PACKED_STRUCT T_UINT32_WRITE { uint32_t v; };
  99:Drivers/CMSIS/Include/cmsis_gcc.h ****   #pragma GCC diagnostic pop
 100:Drivers/CMSIS/Include/cmsis_gcc.h ****   #define __UNALIGNED_UINT32_WRITE(addr, val)    (void)((((struct T_UINT32_WRITE *)(void *)(addr))-
 101:Drivers/CMSIS/Include/cmsis_gcc.h **** #endif
 102:Drivers/CMSIS/Include/cmsis_gcc.h **** #ifndef   __UNALIGNED_UINT32_READ
 103:Drivers/CMSIS/Include/cmsis_gcc.h ****   #pragma GCC diagnostic push
 104:Drivers/CMSIS/Include/cmsis_gcc.h ****   #pragma GCC diagnostic ignored "-Wpacked"
 105:Drivers/CMSIS/Include/cmsis_gcc.h ****   #pragma GCC diagnostic ignored "-Wattributes"
 106:Drivers/CMSIS/Include/cmsis_gcc.h ****   __PACKED_STRUCT T_UINT32_READ { uint32_t v; };
 107:Drivers/CMSIS/Include/cmsis_gcc.h ****   #pragma GCC diagnostic pop
 108:Drivers/CMSIS/Include/cmsis_gcc.h ****   #define __UNALIGNED_UINT32_READ(addr)          (((const struct T_UINT32_READ *)(const void *)(add
 109:Drivers/CMSIS/Include/cmsis_gcc.h **** #endif
 110:Drivers/CMSIS/Include/cmsis_gcc.h **** #ifndef   __ALIGNED
 111:Drivers/CMSIS/Include/cmsis_gcc.h ****   #define __ALIGNED(x)                           __attribute__((aligned(x)))
 112:Drivers/CMSIS/Include/cmsis_gcc.h **** #endif
 113:Drivers/CMSIS/Include/cmsis_gcc.h **** #ifndef   __RESTRICT
 114:Drivers/CMSIS/Include/cmsis_gcc.h ****   #define __RESTRICT                             __restrict
 115:Drivers/CMSIS/Include/cmsis_gcc.h **** #endif
 116:Drivers/CMSIS/Include/cmsis_gcc.h **** 
 117:Drivers/CMSIS/Include/cmsis_gcc.h **** 
 118:Drivers/CMSIS/Include/cmsis_gcc.h **** /* ###########################  Core Function Access  ########################### */
 119:Drivers/CMSIS/Include/cmsis_gcc.h **** /** \ingroup  CMSIS_Core_FunctionInterface
 120:Drivers/CMSIS/Include/cmsis_gcc.h ****     \defgroup CMSIS_Core_RegAccFunctions CMSIS Core Register Access Functions
 121:Drivers/CMSIS/Include/cmsis_gcc.h ****   @{
 122:Drivers/CMSIS/Include/cmsis_gcc.h ****  */
 123:Drivers/CMSIS/Include/cmsis_gcc.h **** 
 124:Drivers/CMSIS/Include/cmsis_gcc.h **** /**
 125:Drivers/CMSIS/Include/cmsis_gcc.h ****   \brief   Enable IRQ Interrupts
 126:Drivers/CMSIS/Include/cmsis_gcc.h ****   \details Enables IRQ interrupts by clearing the I-bit in the CPSR.
 127:Drivers/CMSIS/Include/cmsis_gcc.h ****            Can only be executed in Privileged modes.
 128:Drivers/CMSIS/Include/cmsis_gcc.h ****  */
 129:Drivers/CMSIS/Include/cmsis_gcc.h **** __STATIC_FORCEINLINE void __enable_irq(void)
 130:Drivers/CMSIS/Include/cmsis_gcc.h **** {
 131:Drivers/CMSIS/Include/cmsis_gcc.h ****   __ASM volatile ("cpsie i" : : : "memory");
 132:Drivers/CMSIS/Include/cmsis_gcc.h **** }
 133:Drivers/CMSIS/Include/cmsis_gcc.h **** 
 134:Drivers/CMSIS/Include/cmsis_gcc.h **** 
 135:Drivers/CMSIS/Include/cmsis_gcc.h **** /**
 136:Drivers/CMSIS/Include/cmsis_gcc.h ****   \brief   Disable IRQ Interrupts
 137:Drivers/CMSIS/Include/cmsis_gcc.h ****   \details Disables IRQ interrupts by setting the I-bit in the CPSR.
 138:Drivers/CMSIS/Include/cmsis_gcc.h ****            Can only be executed in Privileged modes.
 139:Drivers/CMSIS/Include/cmsis_gcc.h ****  */
 140:Drivers/CMSIS/Include/cmsis_gcc.h **** __STATIC_FORCEINLINE void __disable_irq(void)
 1276              		.loc 2 140 27 view .LVU239
 1277              	.LBB9:
 141:Drivers/CMSIS/Include/cmsis_gcc.h **** {
 142:Drivers/CMSIS/Include/cmsis_gcc.h ****   __ASM volatile ("cpsid i" : : : "memory");
 1278              		.loc 2 142 3 view .LVU240
 1279              		.syntax unified
 1280              	@ 142 "Drivers/CMSIS/Include/cmsis_gcc.h" 1
 1281 0000 72B6     		cpsid i
 1282              	@ 0 "" 2
 1283              		.thumb
 1284              		.syntax unified
ARM GAS  C:\Users\Admin\AppData\Local\Temp\ccOfIyoO.s 			page 42


 1285              	.L72:
 1286              	.LBE9:
 1287              	.LBE8:
 734:Core/Src/main.c ****   while (1)
 1288              		.loc 1 734 3 discriminator 1 view .LVU241
 735:Core/Src/main.c ****   {
 736:Core/Src/main.c ****   }
 1289              		.loc 1 736 3 discriminator 1 view .LVU242
 734:Core/Src/main.c ****   while (1)
 1290              		.loc 1 734 9 discriminator 1 view .LVU243
 1291 0002 FEE7     		b	.L72
 1292              		.cfi_endproc
 1293              	.LFE87:
 1295              		.section	.text.MX_USART3_UART_Init,"ax",%progbits
 1296              		.align	1
 1297              		.syntax unified
 1298              		.thumb
 1299              		.thumb_func
 1301              	MX_USART3_UART_Init:
 1302              	.LFB80:
 465:Core/Src/main.c **** 
 1303              		.loc 1 465 1 view -0
 1304              		.cfi_startproc
 1305              		@ args = 0, pretend = 0, frame = 0
 1306              		@ frame_needed = 0, uses_anonymous_args = 0
 1307 0000 08B5     		push	{r3, lr}
 1308              	.LCFI12:
 1309              		.cfi_def_cfa_offset 8
 1310              		.cfi_offset 3, -8
 1311              		.cfi_offset 14, -4
 474:Core/Src/main.c ****   huart3.Init.BaudRate = 115200;
 1312              		.loc 1 474 3 view .LVU245
 474:Core/Src/main.c ****   huart3.Init.BaudRate = 115200;
 1313              		.loc 1 474 19 is_stmt 0 view .LVU246
 1314 0002 0A48     		ldr	r0, .L77
 1315 0004 0A4B     		ldr	r3, .L77+4
 1316 0006 0360     		str	r3, [r0]
 475:Core/Src/main.c ****   huart3.Init.WordLength = UART_WORDLENGTH_8B;
 1317              		.loc 1 475 3 is_stmt 1 view .LVU247
 475:Core/Src/main.c ****   huart3.Init.WordLength = UART_WORDLENGTH_8B;
 1318              		.loc 1 475 24 is_stmt 0 view .LVU248
 1319 0008 4FF4E133 		mov	r3, #115200
 1320 000c 4360     		str	r3, [r0, #4]
 476:Core/Src/main.c ****   huart3.Init.StopBits = UART_STOPBITS_1;
 1321              		.loc 1 476 3 is_stmt 1 view .LVU249
 476:Core/Src/main.c ****   huart3.Init.StopBits = UART_STOPBITS_1;
 1322              		.loc 1 476 26 is_stmt 0 view .LVU250
 1323 000e 0023     		movs	r3, #0
 1324 0010 8360     		str	r3, [r0, #8]
 477:Core/Src/main.c ****   huart3.Init.Parity = UART_PARITY_NONE;
 1325              		.loc 1 477 3 is_stmt 1 view .LVU251
 477:Core/Src/main.c ****   huart3.Init.Parity = UART_PARITY_NONE;
 1326              		.loc 1 477 24 is_stmt 0 view .LVU252
 1327 0012 C360     		str	r3, [r0, #12]
 478:Core/Src/main.c ****   huart3.Init.Mode = UART_MODE_TX_RX;
 1328              		.loc 1 478 3 is_stmt 1 view .LVU253
 478:Core/Src/main.c ****   huart3.Init.Mode = UART_MODE_TX_RX;
ARM GAS  C:\Users\Admin\AppData\Local\Temp\ccOfIyoO.s 			page 43


 1329              		.loc 1 478 22 is_stmt 0 view .LVU254
 1330 0014 0361     		str	r3, [r0, #16]
 479:Core/Src/main.c ****   huart3.Init.HwFlowCtl = UART_HWCONTROL_NONE;
 1331              		.loc 1 479 3 is_stmt 1 view .LVU255
 479:Core/Src/main.c ****   huart3.Init.HwFlowCtl = UART_HWCONTROL_NONE;
 1332              		.loc 1 479 20 is_stmt 0 view .LVU256
 1333 0016 0C22     		movs	r2, #12
 1334 0018 4261     		str	r2, [r0, #20]
 480:Core/Src/main.c ****   huart3.Init.OverSampling = UART_OVERSAMPLING_16;
 1335              		.loc 1 480 3 is_stmt 1 view .LVU257
 480:Core/Src/main.c ****   huart3.Init.OverSampling = UART_OVERSAMPLING_16;
 1336              		.loc 1 480 25 is_stmt 0 view .LVU258
 1337 001a 8361     		str	r3, [r0, #24]
 481:Core/Src/main.c ****   if (HAL_UART_Init(&huart3) != HAL_OK)
 1338              		.loc 1 481 3 is_stmt 1 view .LVU259
 481:Core/Src/main.c ****   if (HAL_UART_Init(&huart3) != HAL_OK)
 1339              		.loc 1 481 28 is_stmt 0 view .LVU260
 1340 001c C361     		str	r3, [r0, #28]
 482:Core/Src/main.c ****   {
 1341              		.loc 1 482 3 is_stmt 1 view .LVU261
 482:Core/Src/main.c ****   {
 1342              		.loc 1 482 7 is_stmt 0 view .LVU262
 1343 001e FFF7FEFF 		bl	HAL_UART_Init
 1344              	.LVL111:
 482:Core/Src/main.c ****   {
 1345              		.loc 1 482 6 view .LVU263
 1346 0022 00B9     		cbnz	r0, .L76
 490:Core/Src/main.c **** 
 1347              		.loc 1 490 1 view .LVU264
 1348 0024 08BD     		pop	{r3, pc}
 1349              	.L76:
 484:Core/Src/main.c ****   }
 1350              		.loc 1 484 5 is_stmt 1 view .LVU265
 1351 0026 FFF7FEFF 		bl	Error_Handler
 1352              	.LVL112:
 1353              	.L78:
 1354 002a 00BF     		.align	2
 1355              	.L77:
 1356 002c 00000000 		.word	.LANCHOR0
 1357 0030 00480040 		.word	1073760256
 1358              		.cfi_endproc
 1359              	.LFE80:
 1361              		.section	.text.MX_SPI2_Init,"ax",%progbits
 1362              		.align	1
 1363              		.syntax unified
 1364              		.thumb
 1365              		.thumb_func
 1367              	MX_SPI2_Init:
 1368              	.LFB77:
 323:Core/Src/main.c **** 
 1369              		.loc 1 323 1 view -0
 1370              		.cfi_startproc
 1371              		@ args = 0, pretend = 0, frame = 0
 1372              		@ frame_needed = 0, uses_anonymous_args = 0
 1373 0000 08B5     		push	{r3, lr}
 1374              	.LCFI13:
 1375              		.cfi_def_cfa_offset 8
ARM GAS  C:\Users\Admin\AppData\Local\Temp\ccOfIyoO.s 			page 44


 1376              		.cfi_offset 3, -8
 1377              		.cfi_offset 14, -4
 333:Core/Src/main.c ****   hspi2.Init.Mode = SPI_MODE_MASTER;
 1378              		.loc 1 333 3 view .LVU267
 333:Core/Src/main.c ****   hspi2.Init.Mode = SPI_MODE_MASTER;
 1379              		.loc 1 333 18 is_stmt 0 view .LVU268
 1380 0002 0E48     		ldr	r0, .L83
 1381 0004 0E4B     		ldr	r3, .L83+4
 1382 0006 0360     		str	r3, [r0]
 334:Core/Src/main.c ****   hspi2.Init.Direction = SPI_DIRECTION_1LINE;
 1383              		.loc 1 334 3 is_stmt 1 view .LVU269
 334:Core/Src/main.c ****   hspi2.Init.Direction = SPI_DIRECTION_1LINE;
 1384              		.loc 1 334 19 is_stmt 0 view .LVU270
 1385 0008 4FF48273 		mov	r3, #260
 1386 000c 4360     		str	r3, [r0, #4]
 335:Core/Src/main.c ****   hspi2.Init.DataSize = SPI_DATASIZE_8BIT;
 1387              		.loc 1 335 3 is_stmt 1 view .LVU271
 335:Core/Src/main.c ****   hspi2.Init.DataSize = SPI_DATASIZE_8BIT;
 1388              		.loc 1 335 24 is_stmt 0 view .LVU272
 1389 000e 4FF40043 		mov	r3, #32768
 1390 0012 8360     		str	r3, [r0, #8]
 336:Core/Src/main.c ****   hspi2.Init.CLKPolarity = SPI_POLARITY_LOW;
 1391              		.loc 1 336 3 is_stmt 1 view .LVU273
 336:Core/Src/main.c ****   hspi2.Init.CLKPolarity = SPI_POLARITY_LOW;
 1392              		.loc 1 336 23 is_stmt 0 view .LVU274
 1393 0014 0023     		movs	r3, #0
 1394 0016 C360     		str	r3, [r0, #12]
 337:Core/Src/main.c ****   hspi2.Init.CLKPhase = SPI_PHASE_1EDGE;
 1395              		.loc 1 337 3 is_stmt 1 view .LVU275
 337:Core/Src/main.c ****   hspi2.Init.CLKPhase = SPI_PHASE_1EDGE;
 1396              		.loc 1 337 26 is_stmt 0 view .LVU276
 1397 0018 0361     		str	r3, [r0, #16]
 338:Core/Src/main.c ****   hspi2.Init.NSS = SPI_NSS_SOFT;
 1398              		.loc 1 338 3 is_stmt 1 view .LVU277
 338:Core/Src/main.c ****   hspi2.Init.NSS = SPI_NSS_SOFT;
 1399              		.loc 1 338 23 is_stmt 0 view .LVU278
 1400 001a 4361     		str	r3, [r0, #20]
 339:Core/Src/main.c ****   hspi2.Init.BaudRatePrescaler = SPI_BAUDRATEPRESCALER_2;
 1401              		.loc 1 339 3 is_stmt 1 view .LVU279
 339:Core/Src/main.c ****   hspi2.Init.BaudRatePrescaler = SPI_BAUDRATEPRESCALER_2;
 1402              		.loc 1 339 18 is_stmt 0 view .LVU280
 1403 001c 4FF40072 		mov	r2, #512
 1404 0020 8261     		str	r2, [r0, #24]
 340:Core/Src/main.c ****   hspi2.Init.FirstBit = SPI_FIRSTBIT_MSB;
 1405              		.loc 1 340 3 is_stmt 1 view .LVU281
 340:Core/Src/main.c ****   hspi2.Init.FirstBit = SPI_FIRSTBIT_MSB;
 1406              		.loc 1 340 32 is_stmt 0 view .LVU282
 1407 0022 C361     		str	r3, [r0, #28]
 341:Core/Src/main.c ****   hspi2.Init.TIMode = SPI_TIMODE_DISABLE;
 1408              		.loc 1 341 3 is_stmt 1 view .LVU283
 341:Core/Src/main.c ****   hspi2.Init.TIMode = SPI_TIMODE_DISABLE;
 1409              		.loc 1 341 23 is_stmt 0 view .LVU284
 1410 0024 0362     		str	r3, [r0, #32]
 342:Core/Src/main.c ****   hspi2.Init.CRCCalculation = SPI_CRCCALCULATION_DISABLE;
 1411              		.loc 1 342 3 is_stmt 1 view .LVU285
 342:Core/Src/main.c ****   hspi2.Init.CRCCalculation = SPI_CRCCALCULATION_DISABLE;
 1412              		.loc 1 342 21 is_stmt 0 view .LVU286
ARM GAS  C:\Users\Admin\AppData\Local\Temp\ccOfIyoO.s 			page 45


 1413 0026 4362     		str	r3, [r0, #36]
 343:Core/Src/main.c ****   hspi2.Init.CRCPolynomial = 10;
 1414              		.loc 1 343 3 is_stmt 1 view .LVU287
 343:Core/Src/main.c ****   hspi2.Init.CRCPolynomial = 10;
 1415              		.loc 1 343 29 is_stmt 0 view .LVU288
 1416 0028 8362     		str	r3, [r0, #40]
 344:Core/Src/main.c ****   if (HAL_SPI_Init(&hspi2) != HAL_OK)
 1417              		.loc 1 344 3 is_stmt 1 view .LVU289
 344:Core/Src/main.c ****   if (HAL_SPI_Init(&hspi2) != HAL_OK)
 1418              		.loc 1 344 28 is_stmt 0 view .LVU290
 1419 002a 0A23     		movs	r3, #10
 1420 002c C362     		str	r3, [r0, #44]
 345:Core/Src/main.c ****   {
 1421              		.loc 1 345 3 is_stmt 1 view .LVU291
 345:Core/Src/main.c ****   {
 1422              		.loc 1 345 7 is_stmt 0 view .LVU292
 1423 002e FFF7FEFF 		bl	HAL_SPI_Init
 1424              	.LVL113:
 345:Core/Src/main.c ****   {
 1425              		.loc 1 345 6 view .LVU293
 1426 0032 00B9     		cbnz	r0, .L82
 353:Core/Src/main.c **** 
 1427              		.loc 1 353 1 view .LVU294
 1428 0034 08BD     		pop	{r3, pc}
 1429              	.L82:
 347:Core/Src/main.c ****   }
 1430              		.loc 1 347 5 is_stmt 1 view .LVU295
 1431 0036 FFF7FEFF 		bl	Error_Handler
 1432              	.LVL114:
 1433              	.L84:
 1434 003a 00BF     		.align	2
 1435              	.L83:
 1436 003c 00000000 		.word	.LANCHOR23
 1437 0040 00380040 		.word	1073756160
 1438              		.cfi_endproc
 1439              	.LFE77:
 1441              		.section	.text.MX_TIM2_Init,"ax",%progbits
 1442              		.align	1
 1443              		.syntax unified
 1444              		.thumb
 1445              		.thumb_func
 1447              	MX_TIM2_Init:
 1448              	.LFB78:
 361:Core/Src/main.c **** 
 1449              		.loc 1 361 1 view -0
 1450              		.cfi_startproc
 1451              		@ args = 0, pretend = 0, frame = 24
 1452              		@ frame_needed = 0, uses_anonymous_args = 0
 1453 0000 00B5     		push	{lr}
 1454              	.LCFI14:
 1455              		.cfi_def_cfa_offset 4
 1456              		.cfi_offset 14, -4
 1457 0002 87B0     		sub	sp, sp, #28
 1458              	.LCFI15:
 1459              		.cfi_def_cfa_offset 32
 367:Core/Src/main.c ****   TIM_MasterConfigTypeDef sMasterConfig = {0};
 1460              		.loc 1 367 3 view .LVU297
ARM GAS  C:\Users\Admin\AppData\Local\Temp\ccOfIyoO.s 			page 46


 367:Core/Src/main.c ****   TIM_MasterConfigTypeDef sMasterConfig = {0};
 1461              		.loc 1 367 26 is_stmt 0 view .LVU298
 1462 0004 0023     		movs	r3, #0
 1463 0006 0293     		str	r3, [sp, #8]
 1464 0008 0393     		str	r3, [sp, #12]
 1465 000a 0493     		str	r3, [sp, #16]
 1466 000c 0593     		str	r3, [sp, #20]
 368:Core/Src/main.c **** 
 1467              		.loc 1 368 3 is_stmt 1 view .LVU299
 368:Core/Src/main.c **** 
 1468              		.loc 1 368 27 is_stmt 0 view .LVU300
 1469 000e 0093     		str	r3, [sp]
 1470 0010 0193     		str	r3, [sp, #4]
 373:Core/Src/main.c ****   htim2.Init.Prescaler = 72-1;
 1471              		.loc 1 373 3 is_stmt 1 view .LVU301
 373:Core/Src/main.c ****   htim2.Init.Prescaler = 72-1;
 1472              		.loc 1 373 18 is_stmt 0 view .LVU302
 1473 0012 1448     		ldr	r0, .L93
 1474 0014 4FF08042 		mov	r2, #1073741824
 1475 0018 0260     		str	r2, [r0]
 374:Core/Src/main.c ****   htim2.Init.CounterMode = TIM_COUNTERMODE_UP;
 1476              		.loc 1 374 3 is_stmt 1 view .LVU303
 374:Core/Src/main.c ****   htim2.Init.CounterMode = TIM_COUNTERMODE_UP;
 1477              		.loc 1 374 24 is_stmt 0 view .LVU304
 1478 001a 4722     		movs	r2, #71
 1479 001c 4260     		str	r2, [r0, #4]
 375:Core/Src/main.c ****   htim2.Init.Period = 65535;
 1480              		.loc 1 375 3 is_stmt 1 view .LVU305
 375:Core/Src/main.c ****   htim2.Init.Period = 65535;
 1481              		.loc 1 375 26 is_stmt 0 view .LVU306
 1482 001e 8360     		str	r3, [r0, #8]
 376:Core/Src/main.c ****   htim2.Init.ClockDivision = TIM_CLOCKDIVISION_DIV1;
 1483              		.loc 1 376 3 is_stmt 1 view .LVU307
 376:Core/Src/main.c ****   htim2.Init.ClockDivision = TIM_CLOCKDIVISION_DIV1;
 1484              		.loc 1 376 21 is_stmt 0 view .LVU308
 1485 0020 4FF6FF72 		movw	r2, #65535
 1486 0024 C260     		str	r2, [r0, #12]
 377:Core/Src/main.c ****   htim2.Init.AutoReloadPreload = TIM_AUTORELOAD_PRELOAD_DISABLE;
 1487              		.loc 1 377 3 is_stmt 1 view .LVU309
 377:Core/Src/main.c ****   htim2.Init.AutoReloadPreload = TIM_AUTORELOAD_PRELOAD_DISABLE;
 1488              		.loc 1 377 28 is_stmt 0 view .LVU310
 1489 0026 0361     		str	r3, [r0, #16]
 378:Core/Src/main.c ****   if (HAL_TIM_Base_Init(&htim2) != HAL_OK)
 1490              		.loc 1 378 3 is_stmt 1 view .LVU311
 378:Core/Src/main.c ****   if (HAL_TIM_Base_Init(&htim2) != HAL_OK)
 1491              		.loc 1 378 32 is_stmt 0 view .LVU312
 1492 0028 8361     		str	r3, [r0, #24]
 379:Core/Src/main.c ****   {
 1493              		.loc 1 379 3 is_stmt 1 view .LVU313
 379:Core/Src/main.c ****   {
 1494              		.loc 1 379 7 is_stmt 0 view .LVU314
 1495 002a FFF7FEFF 		bl	HAL_TIM_Base_Init
 1496              	.LVL115:
 379:Core/Src/main.c ****   {
 1497              		.loc 1 379 6 view .LVU315
 1498 002e 90B9     		cbnz	r0, .L90
 383:Core/Src/main.c ****   if (HAL_TIM_ConfigClockSource(&htim2, &sClockSourceConfig) != HAL_OK)
ARM GAS  C:\Users\Admin\AppData\Local\Temp\ccOfIyoO.s 			page 47


 1499              		.loc 1 383 3 is_stmt 1 view .LVU316
 383:Core/Src/main.c ****   if (HAL_TIM_ConfigClockSource(&htim2, &sClockSourceConfig) != HAL_OK)
 1500              		.loc 1 383 34 is_stmt 0 view .LVU317
 1501 0030 4FF48053 		mov	r3, #4096
 1502 0034 0293     		str	r3, [sp, #8]
 384:Core/Src/main.c ****   {
 1503              		.loc 1 384 3 is_stmt 1 view .LVU318
 384:Core/Src/main.c ****   {
 1504              		.loc 1 384 7 is_stmt 0 view .LVU319
 1505 0036 02A9     		add	r1, sp, #8
 1506 0038 0A48     		ldr	r0, .L93
 1507 003a FFF7FEFF 		bl	HAL_TIM_ConfigClockSource
 1508              	.LVL116:
 384:Core/Src/main.c ****   {
 1509              		.loc 1 384 6 view .LVU320
 1510 003e 60B9     		cbnz	r0, .L91
 388:Core/Src/main.c ****   sMasterConfig.MasterSlaveMode = TIM_MASTERSLAVEMODE_DISABLE;
 1511              		.loc 1 388 3 is_stmt 1 view .LVU321
 388:Core/Src/main.c ****   sMasterConfig.MasterSlaveMode = TIM_MASTERSLAVEMODE_DISABLE;
 1512              		.loc 1 388 37 is_stmt 0 view .LVU322
 1513 0040 0023     		movs	r3, #0
 1514 0042 0093     		str	r3, [sp]
 389:Core/Src/main.c ****   if (HAL_TIMEx_MasterConfigSynchronization(&htim2, &sMasterConfig) != HAL_OK)
 1515              		.loc 1 389 3 is_stmt 1 view .LVU323
 389:Core/Src/main.c ****   if (HAL_TIMEx_MasterConfigSynchronization(&htim2, &sMasterConfig) != HAL_OK)
 1516              		.loc 1 389 33 is_stmt 0 view .LVU324
 1517 0044 0193     		str	r3, [sp, #4]
 390:Core/Src/main.c ****   {
 1518              		.loc 1 390 3 is_stmt 1 view .LVU325
 390:Core/Src/main.c ****   {
 1519              		.loc 1 390 7 is_stmt 0 view .LVU326
 1520 0046 6946     		mov	r1, sp
 1521 0048 0648     		ldr	r0, .L93
 1522 004a FFF7FEFF 		bl	HAL_TIMEx_MasterConfigSynchronization
 1523              	.LVL117:
 390:Core/Src/main.c ****   {
 1524              		.loc 1 390 6 view .LVU327
 1525 004e 30B9     		cbnz	r0, .L92
 398:Core/Src/main.c **** 
 1526              		.loc 1 398 1 view .LVU328
 1527 0050 07B0     		add	sp, sp, #28
 1528              	.LCFI16:
 1529              		.cfi_remember_state
 1530              		.cfi_def_cfa_offset 4
 1531              		@ sp needed
 1532 0052 5DF804FB 		ldr	pc, [sp], #4
 1533              	.L90:
 1534              	.LCFI17:
 1535              		.cfi_restore_state
 381:Core/Src/main.c ****   }
 1536              		.loc 1 381 5 is_stmt 1 view .LVU329
 1537 0056 FFF7FEFF 		bl	Error_Handler
 1538              	.LVL118:
 1539              	.L91:
 386:Core/Src/main.c ****   }
 1540              		.loc 1 386 5 view .LVU330
 1541 005a FFF7FEFF 		bl	Error_Handler
ARM GAS  C:\Users\Admin\AppData\Local\Temp\ccOfIyoO.s 			page 48


 1542              	.LVL119:
 1543              	.L92:
 392:Core/Src/main.c ****   }
 1544              		.loc 1 392 5 view .LVU331
 1545 005e FFF7FEFF 		bl	Error_Handler
 1546              	.LVL120:
 1547              	.L94:
 1548 0062 00BF     		.align	2
 1549              	.L93:
 1550 0064 00000000 		.word	.LANCHOR24
 1551              		.cfi_endproc
 1552              	.LFE78:
 1554              		.section	.text.MX_TIM3_Init,"ax",%progbits
 1555              		.align	1
 1556              		.syntax unified
 1557              		.thumb
 1558              		.thumb_func
 1560              	MX_TIM3_Init:
 1561              	.LFB79:
 406:Core/Src/main.c **** 
 1562              		.loc 1 406 1 view -0
 1563              		.cfi_startproc
 1564              		@ args = 0, pretend = 0, frame = 56
 1565              		@ frame_needed = 0, uses_anonymous_args = 0
 1566 0000 00B5     		push	{lr}
 1567              	.LCFI18:
 1568              		.cfi_def_cfa_offset 4
 1569              		.cfi_offset 14, -4
 1570 0002 8FB0     		sub	sp, sp, #60
 1571              	.LCFI19:
 1572              		.cfi_def_cfa_offset 64
 412:Core/Src/main.c ****   TIM_MasterConfigTypeDef sMasterConfig = {0};
 1573              		.loc 1 412 3 view .LVU333
 412:Core/Src/main.c ****   TIM_MasterConfigTypeDef sMasterConfig = {0};
 1574              		.loc 1 412 26 is_stmt 0 view .LVU334
 1575 0004 0023     		movs	r3, #0
 1576 0006 0A93     		str	r3, [sp, #40]
 1577 0008 0B93     		str	r3, [sp, #44]
 1578 000a 0C93     		str	r3, [sp, #48]
 1579 000c 0D93     		str	r3, [sp, #52]
 413:Core/Src/main.c ****   TIM_OC_InitTypeDef sConfigOC = {0};
 1580              		.loc 1 413 3 is_stmt 1 view .LVU335
 413:Core/Src/main.c ****   TIM_OC_InitTypeDef sConfigOC = {0};
 1581              		.loc 1 413 27 is_stmt 0 view .LVU336
 1582 000e 0893     		str	r3, [sp, #32]
 1583 0010 0993     		str	r3, [sp, #36]
 414:Core/Src/main.c **** 
 1584              		.loc 1 414 3 is_stmt 1 view .LVU337
 414:Core/Src/main.c **** 
 1585              		.loc 1 414 22 is_stmt 0 view .LVU338
 1586 0012 0193     		str	r3, [sp, #4]
 1587 0014 0293     		str	r3, [sp, #8]
 1588 0016 0393     		str	r3, [sp, #12]
 1589 0018 0493     		str	r3, [sp, #16]
 1590 001a 0593     		str	r3, [sp, #20]
 1591 001c 0693     		str	r3, [sp, #24]
 1592 001e 0793     		str	r3, [sp, #28]
ARM GAS  C:\Users\Admin\AppData\Local\Temp\ccOfIyoO.s 			page 49


 419:Core/Src/main.c ****   htim3.Init.Prescaler = 1444-1;
 1593              		.loc 1 419 3 is_stmt 1 view .LVU339
 419:Core/Src/main.c ****   htim3.Init.Prescaler = 1444-1;
 1594              		.loc 1 419 18 is_stmt 0 view .LVU340
 1595 0020 1E48     		ldr	r0, .L107
 1596 0022 1F4A     		ldr	r2, .L107+4
 1597 0024 0260     		str	r2, [r0]
 420:Core/Src/main.c ****   htim3.Init.CounterMode = TIM_COUNTERMODE_UP;
 1598              		.loc 1 420 3 is_stmt 1 view .LVU341
 420:Core/Src/main.c ****   htim3.Init.CounterMode = TIM_COUNTERMODE_UP;
 1599              		.loc 1 420 24 is_stmt 0 view .LVU342
 1600 0026 40F2A352 		movw	r2, #1443
 1601 002a 4260     		str	r2, [r0, #4]
 421:Core/Src/main.c ****   htim3.Init.Period = 1000-1;
 1602              		.loc 1 421 3 is_stmt 1 view .LVU343
 421:Core/Src/main.c ****   htim3.Init.Period = 1000-1;
 1603              		.loc 1 421 26 is_stmt 0 view .LVU344
 1604 002c 8360     		str	r3, [r0, #8]
 422:Core/Src/main.c ****   htim3.Init.ClockDivision = TIM_CLOCKDIVISION_DIV1;
 1605              		.loc 1 422 3 is_stmt 1 view .LVU345
 422:Core/Src/main.c ****   htim3.Init.ClockDivision = TIM_CLOCKDIVISION_DIV1;
 1606              		.loc 1 422 21 is_stmt 0 view .LVU346
 1607 002e 40F2E732 		movw	r2, #999
 1608 0032 C260     		str	r2, [r0, #12]
 423:Core/Src/main.c ****   htim3.Init.AutoReloadPreload = TIM_AUTORELOAD_PRELOAD_DISABLE;
 1609              		.loc 1 423 3 is_stmt 1 view .LVU347
 423:Core/Src/main.c ****   htim3.Init.AutoReloadPreload = TIM_AUTORELOAD_PRELOAD_DISABLE;
 1610              		.loc 1 423 28 is_stmt 0 view .LVU348
 1611 0034 0361     		str	r3, [r0, #16]
 424:Core/Src/main.c ****   if (HAL_TIM_Base_Init(&htim3) != HAL_OK)
 1612              		.loc 1 424 3 is_stmt 1 view .LVU349
 424:Core/Src/main.c ****   if (HAL_TIM_Base_Init(&htim3) != HAL_OK)
 1613              		.loc 1 424 32 is_stmt 0 view .LVU350
 1614 0036 8361     		str	r3, [r0, #24]
 425:Core/Src/main.c ****   {
 1615              		.loc 1 425 3 is_stmt 1 view .LVU351
 425:Core/Src/main.c ****   {
 1616              		.loc 1 425 7 is_stmt 0 view .LVU352
 1617 0038 FFF7FEFF 		bl	HAL_TIM_Base_Init
 1618              	.LVL121:
 425:Core/Src/main.c ****   {
 1619              		.loc 1 425 6 view .LVU353
 1620 003c 20BB     		cbnz	r0, .L102
 429:Core/Src/main.c ****   if (HAL_TIM_ConfigClockSource(&htim3, &sClockSourceConfig) != HAL_OK)
 1621              		.loc 1 429 3 is_stmt 1 view .LVU354
 429:Core/Src/main.c ****   if (HAL_TIM_ConfigClockSource(&htim3, &sClockSourceConfig) != HAL_OK)
 1622              		.loc 1 429 34 is_stmt 0 view .LVU355
 1623 003e 4FF48053 		mov	r3, #4096
 1624 0042 0A93     		str	r3, [sp, #40]
 430:Core/Src/main.c ****   {
 1625              		.loc 1 430 3 is_stmt 1 view .LVU356
 430:Core/Src/main.c ****   {
 1626              		.loc 1 430 7 is_stmt 0 view .LVU357
 1627 0044 0AA9     		add	r1, sp, #40
 1628 0046 1548     		ldr	r0, .L107
 1629 0048 FFF7FEFF 		bl	HAL_TIM_ConfigClockSource
 1630              	.LVL122:
ARM GAS  C:\Users\Admin\AppData\Local\Temp\ccOfIyoO.s 			page 50


 430:Core/Src/main.c ****   {
 1631              		.loc 1 430 6 view .LVU358
 1632 004c F0B9     		cbnz	r0, .L103
 434:Core/Src/main.c ****   {
 1633              		.loc 1 434 3 is_stmt 1 view .LVU359
 434:Core/Src/main.c ****   {
 1634              		.loc 1 434 7 is_stmt 0 view .LVU360
 1635 004e 1348     		ldr	r0, .L107
 1636 0050 FFF7FEFF 		bl	HAL_TIM_PWM_Init
 1637              	.LVL123:
 434:Core/Src/main.c ****   {
 1638              		.loc 1 434 6 view .LVU361
 1639 0054 E0B9     		cbnz	r0, .L104
 438:Core/Src/main.c ****   sMasterConfig.MasterSlaveMode = TIM_MASTERSLAVEMODE_DISABLE;
 1640              		.loc 1 438 3 is_stmt 1 view .LVU362
 438:Core/Src/main.c ****   sMasterConfig.MasterSlaveMode = TIM_MASTERSLAVEMODE_DISABLE;
 1641              		.loc 1 438 37 is_stmt 0 view .LVU363
 1642 0056 0023     		movs	r3, #0
 1643 0058 0893     		str	r3, [sp, #32]
 439:Core/Src/main.c ****   if (HAL_TIMEx_MasterConfigSynchronization(&htim3, &sMasterConfig) != HAL_OK)
 1644              		.loc 1 439 3 is_stmt 1 view .LVU364
 439:Core/Src/main.c ****   if (HAL_TIMEx_MasterConfigSynchronization(&htim3, &sMasterConfig) != HAL_OK)
 1645              		.loc 1 439 33 is_stmt 0 view .LVU365
 1646 005a 0993     		str	r3, [sp, #36]
 440:Core/Src/main.c ****   {
 1647              		.loc 1 440 3 is_stmt 1 view .LVU366
 440:Core/Src/main.c ****   {
 1648              		.loc 1 440 7 is_stmt 0 view .LVU367
 1649 005c 08A9     		add	r1, sp, #32
 1650 005e 0F48     		ldr	r0, .L107
 1651 0060 FFF7FEFF 		bl	HAL_TIMEx_MasterConfigSynchronization
 1652              	.LVL124:
 440:Core/Src/main.c ****   {
 1653              		.loc 1 440 6 view .LVU368
 1654 0064 B0B9     		cbnz	r0, .L105
 444:Core/Src/main.c ****   sConfigOC.Pulse = 0;
 1655              		.loc 1 444 3 is_stmt 1 view .LVU369
 444:Core/Src/main.c ****   sConfigOC.Pulse = 0;
 1656              		.loc 1 444 20 is_stmt 0 view .LVU370
 1657 0066 6023     		movs	r3, #96
 1658 0068 0193     		str	r3, [sp, #4]
 445:Core/Src/main.c ****   sConfigOC.OCPolarity = TIM_OCPOLARITY_HIGH;
 1659              		.loc 1 445 3 is_stmt 1 view .LVU371
 445:Core/Src/main.c ****   sConfigOC.OCPolarity = TIM_OCPOLARITY_HIGH;
 1660              		.loc 1 445 19 is_stmt 0 view .LVU372
 1661 006a 0022     		movs	r2, #0
 1662 006c 0292     		str	r2, [sp, #8]
 446:Core/Src/main.c ****   sConfigOC.OCFastMode = TIM_OCFAST_DISABLE;
 1663              		.loc 1 446 3 is_stmt 1 view .LVU373
 446:Core/Src/main.c ****   sConfigOC.OCFastMode = TIM_OCFAST_DISABLE;
 1664              		.loc 1 446 24 is_stmt 0 view .LVU374
 1665 006e 0392     		str	r2, [sp, #12]
 447:Core/Src/main.c ****   if (HAL_TIM_PWM_ConfigChannel(&htim3, &sConfigOC, TIM_CHANNEL_1) != HAL_OK)
 1666              		.loc 1 447 3 is_stmt 1 view .LVU375
 447:Core/Src/main.c ****   if (HAL_TIM_PWM_ConfigChannel(&htim3, &sConfigOC, TIM_CHANNEL_1) != HAL_OK)
 1667              		.loc 1 447 24 is_stmt 0 view .LVU376
 1668 0070 0592     		str	r2, [sp, #20]
ARM GAS  C:\Users\Admin\AppData\Local\Temp\ccOfIyoO.s 			page 51


 448:Core/Src/main.c ****   {
 1669              		.loc 1 448 3 is_stmt 1 view .LVU377
 448:Core/Src/main.c ****   {
 1670              		.loc 1 448 7 is_stmt 0 view .LVU378
 1671 0072 01A9     		add	r1, sp, #4
 1672 0074 0948     		ldr	r0, .L107
 1673 0076 FFF7FEFF 		bl	HAL_TIM_PWM_ConfigChannel
 1674              	.LVL125:
 448:Core/Src/main.c ****   {
 1675              		.loc 1 448 6 view .LVU379
 1676 007a 68B9     		cbnz	r0, .L106
 455:Core/Src/main.c **** 
 1677              		.loc 1 455 3 is_stmt 1 view .LVU380
 1678 007c 0748     		ldr	r0, .L107
 1679 007e FFF7FEFF 		bl	HAL_TIM_MspPostInit
 1680              	.LVL126:
 457:Core/Src/main.c **** 
 1681              		.loc 1 457 1 is_stmt 0 view .LVU381
 1682 0082 0FB0     		add	sp, sp, #60
 1683              	.LCFI20:
 1684              		.cfi_remember_state
 1685              		.cfi_def_cfa_offset 4
 1686              		@ sp needed
 1687 0084 5DF804FB 		ldr	pc, [sp], #4
 1688              	.L102:
 1689              	.LCFI21:
 1690              		.cfi_restore_state
 427:Core/Src/main.c ****   }
 1691              		.loc 1 427 5 is_stmt 1 view .LVU382
 1692 0088 FFF7FEFF 		bl	Error_Handler
 1693              	.LVL127:
 1694              	.L103:
 432:Core/Src/main.c ****   }
 1695              		.loc 1 432 5 view .LVU383
 1696 008c FFF7FEFF 		bl	Error_Handler
 1697              	.LVL128:
 1698              	.L104:
 436:Core/Src/main.c ****   }
 1699              		.loc 1 436 5 view .LVU384
 1700 0090 FFF7FEFF 		bl	Error_Handler
 1701              	.LVL129:
 1702              	.L105:
 442:Core/Src/main.c ****   }
 1703              		.loc 1 442 5 view .LVU385
 1704 0094 FFF7FEFF 		bl	Error_Handler
 1705              	.LVL130:
 1706              	.L106:
 450:Core/Src/main.c ****   }
 1707              		.loc 1 450 5 view .LVU386
 1708 0098 FFF7FEFF 		bl	Error_Handler
 1709              	.LVL131:
 1710              	.L108:
 1711              		.align	2
 1712              	.L107:
 1713 009c 00000000 		.word	.LANCHOR25
 1714 00a0 00040040 		.word	1073742848
 1715              		.cfi_endproc
ARM GAS  C:\Users\Admin\AppData\Local\Temp\ccOfIyoO.s 			page 52


 1716              	.LFE79:
 1718              		.section	.text.SystemClock_Config,"ax",%progbits
 1719              		.align	1
 1720              		.global	SystemClock_Config
 1721              		.syntax unified
 1722              		.thumb
 1723              		.thumb_func
 1725              	SystemClock_Config:
 1726              	.LFB76:
 283:Core/Src/main.c ****   RCC_OscInitTypeDef RCC_OscInitStruct = {0};
 1727              		.loc 1 283 1 view -0
 1728              		.cfi_startproc
 1729              		@ args = 0, pretend = 0, frame = 64
 1730              		@ frame_needed = 0, uses_anonymous_args = 0
 1731 0000 00B5     		push	{lr}
 1732              	.LCFI22:
 1733              		.cfi_def_cfa_offset 4
 1734              		.cfi_offset 14, -4
 1735 0002 91B0     		sub	sp, sp, #68
 1736              	.LCFI23:
 1737              		.cfi_def_cfa_offset 72
 284:Core/Src/main.c ****   RCC_ClkInitTypeDef RCC_ClkInitStruct = {0};
 1738              		.loc 1 284 3 view .LVU388
 284:Core/Src/main.c ****   RCC_ClkInitTypeDef RCC_ClkInitStruct = {0};
 1739              		.loc 1 284 22 is_stmt 0 view .LVU389
 1740 0004 2822     		movs	r2, #40
 1741 0006 0021     		movs	r1, #0
 1742 0008 06A8     		add	r0, sp, #24
 1743 000a FFF7FEFF 		bl	memset
 1744              	.LVL132:
 285:Core/Src/main.c **** 
 1745              		.loc 1 285 3 is_stmt 1 view .LVU390
 285:Core/Src/main.c **** 
 1746              		.loc 1 285 22 is_stmt 0 view .LVU391
 1747 000e 0023     		movs	r3, #0
 1748 0010 0193     		str	r3, [sp, #4]
 1749 0012 0293     		str	r3, [sp, #8]
 1750 0014 0393     		str	r3, [sp, #12]
 1751 0016 0493     		str	r3, [sp, #16]
 1752 0018 0593     		str	r3, [sp, #20]
 290:Core/Src/main.c ****   RCC_OscInitStruct.HSEState = RCC_HSE_ON;
 1753              		.loc 1 290 3 is_stmt 1 view .LVU392
 290:Core/Src/main.c ****   RCC_OscInitStruct.HSEState = RCC_HSE_ON;
 1754              		.loc 1 290 36 is_stmt 0 view .LVU393
 1755 001a 0122     		movs	r2, #1
 1756 001c 0692     		str	r2, [sp, #24]
 291:Core/Src/main.c ****   RCC_OscInitStruct.HSEPredivValue = RCC_HSE_PREDIV_DIV1;
 1757              		.loc 1 291 3 is_stmt 1 view .LVU394
 291:Core/Src/main.c ****   RCC_OscInitStruct.HSEPredivValue = RCC_HSE_PREDIV_DIV1;
 1758              		.loc 1 291 30 is_stmt 0 view .LVU395
 1759 001e 4FF48033 		mov	r3, #65536
 1760 0022 0793     		str	r3, [sp, #28]
 292:Core/Src/main.c ****   RCC_OscInitStruct.HSIState = RCC_HSI_ON;
 1761              		.loc 1 292 3 is_stmt 1 view .LVU396
 293:Core/Src/main.c ****   RCC_OscInitStruct.PLL.PLLState = RCC_PLL_ON;
 1762              		.loc 1 293 3 view .LVU397
 293:Core/Src/main.c ****   RCC_OscInitStruct.PLL.PLLState = RCC_PLL_ON;
ARM GAS  C:\Users\Admin\AppData\Local\Temp\ccOfIyoO.s 			page 53


 1763              		.loc 1 293 30 is_stmt 0 view .LVU398
 1764 0024 0A92     		str	r2, [sp, #40]
 294:Core/Src/main.c ****   RCC_OscInitStruct.PLL.PLLSource = RCC_PLLSOURCE_HSE;
 1765              		.loc 1 294 3 is_stmt 1 view .LVU399
 294:Core/Src/main.c ****   RCC_OscInitStruct.PLL.PLLSource = RCC_PLLSOURCE_HSE;
 1766              		.loc 1 294 34 is_stmt 0 view .LVU400
 1767 0026 0222     		movs	r2, #2
 1768 0028 0D92     		str	r2, [sp, #52]
 295:Core/Src/main.c ****   RCC_OscInitStruct.PLL.PLLMUL = RCC_PLL_MUL9;
 1769              		.loc 1 295 3 is_stmt 1 view .LVU401
 295:Core/Src/main.c ****   RCC_OscInitStruct.PLL.PLLMUL = RCC_PLL_MUL9;
 1770              		.loc 1 295 35 is_stmt 0 view .LVU402
 1771 002a 0E93     		str	r3, [sp, #56]
 296:Core/Src/main.c ****   if (HAL_RCC_OscConfig(&RCC_OscInitStruct) != HAL_OK)
 1772              		.loc 1 296 3 is_stmt 1 view .LVU403
 296:Core/Src/main.c ****   if (HAL_RCC_OscConfig(&RCC_OscInitStruct) != HAL_OK)
 1773              		.loc 1 296 32 is_stmt 0 view .LVU404
 1774 002c 4FF4E013 		mov	r3, #1835008
 1775 0030 0F93     		str	r3, [sp, #60]
 297:Core/Src/main.c ****   {
 1776              		.loc 1 297 3 is_stmt 1 view .LVU405
 297:Core/Src/main.c ****   {
 1777              		.loc 1 297 7 is_stmt 0 view .LVU406
 1778 0032 06A8     		add	r0, sp, #24
 1779 0034 FFF7FEFF 		bl	HAL_RCC_OscConfig
 1780              	.LVL133:
 297:Core/Src/main.c ****   {
 1781              		.loc 1 297 6 view .LVU407
 1782 0038 80B9     		cbnz	r0, .L113
 304:Core/Src/main.c ****                               |RCC_CLOCKTYPE_PCLK1|RCC_CLOCKTYPE_PCLK2;
 1783              		.loc 1 304 3 is_stmt 1 view .LVU408
 304:Core/Src/main.c ****                               |RCC_CLOCKTYPE_PCLK1|RCC_CLOCKTYPE_PCLK2;
 1784              		.loc 1 304 31 is_stmt 0 view .LVU409
 1785 003a 0F23     		movs	r3, #15
 1786 003c 0193     		str	r3, [sp, #4]
 306:Core/Src/main.c ****   RCC_ClkInitStruct.AHBCLKDivider = RCC_SYSCLK_DIV1;
 1787              		.loc 1 306 3 is_stmt 1 view .LVU410
 306:Core/Src/main.c ****   RCC_ClkInitStruct.AHBCLKDivider = RCC_SYSCLK_DIV1;
 1788              		.loc 1 306 34 is_stmt 0 view .LVU411
 1789 003e 0221     		movs	r1, #2
 1790 0040 0291     		str	r1, [sp, #8]
 307:Core/Src/main.c ****   RCC_ClkInitStruct.APB1CLKDivider = RCC_HCLK_DIV2;
 1791              		.loc 1 307 3 is_stmt 1 view .LVU412
 307:Core/Src/main.c ****   RCC_ClkInitStruct.APB1CLKDivider = RCC_HCLK_DIV2;
 1792              		.loc 1 307 35 is_stmt 0 view .LVU413
 1793 0042 0023     		movs	r3, #0
 1794 0044 0393     		str	r3, [sp, #12]
 308:Core/Src/main.c ****   RCC_ClkInitStruct.APB2CLKDivider = RCC_HCLK_DIV1;
 1795              		.loc 1 308 3 is_stmt 1 view .LVU414
 308:Core/Src/main.c ****   RCC_ClkInitStruct.APB2CLKDivider = RCC_HCLK_DIV1;
 1796              		.loc 1 308 36 is_stmt 0 view .LVU415
 1797 0046 4FF48062 		mov	r2, #1024
 1798 004a 0492     		str	r2, [sp, #16]
 309:Core/Src/main.c **** 
 1799              		.loc 1 309 3 is_stmt 1 view .LVU416
 309:Core/Src/main.c **** 
 1800              		.loc 1 309 36 is_stmt 0 view .LVU417
ARM GAS  C:\Users\Admin\AppData\Local\Temp\ccOfIyoO.s 			page 54


 1801 004c 0593     		str	r3, [sp, #20]
 311:Core/Src/main.c ****   {
 1802              		.loc 1 311 3 is_stmt 1 view .LVU418
 311:Core/Src/main.c ****   {
 1803              		.loc 1 311 7 is_stmt 0 view .LVU419
 1804 004e 01A8     		add	r0, sp, #4
 1805 0050 FFF7FEFF 		bl	HAL_RCC_ClockConfig
 1806              	.LVL134:
 311:Core/Src/main.c ****   {
 1807              		.loc 1 311 6 view .LVU420
 1808 0054 20B9     		cbnz	r0, .L114
 315:Core/Src/main.c **** 
 1809              		.loc 1 315 1 view .LVU421
 1810 0056 11B0     		add	sp, sp, #68
 1811              	.LCFI24:
 1812              		.cfi_remember_state
 1813              		.cfi_def_cfa_offset 4
 1814              		@ sp needed
 1815 0058 5DF804FB 		ldr	pc, [sp], #4
 1816              	.L113:
 1817              	.LCFI25:
 1818              		.cfi_restore_state
 299:Core/Src/main.c ****   }
 1819              		.loc 1 299 5 is_stmt 1 view .LVU422
 1820 005c FFF7FEFF 		bl	Error_Handler
 1821              	.LVL135:
 1822              	.L114:
 313:Core/Src/main.c ****   }
 1823              		.loc 1 313 5 view .LVU423
 1824 0060 FFF7FEFF 		bl	Error_Handler
 1825              	.LVL136:
 1826              		.cfi_endproc
 1827              	.LFE76:
 1829              		.section	.rodata.main.str1.4,"aMS",%progbits,1
 1830              		.align	2
 1831              	.LC32:
 1832 0000 5465616D 		.ascii	"Team 17\000"
 1832      20313700 
 1833              		.align	2
 1834              	.LC33:
 1835 0008 54656D70 		.ascii	"Temp: \000"
 1835      3A2000
 1836 000f 00       		.align	2
 1837              	.LC34:
 1838 0010 48756D69 		.ascii	"Humi: \000"
 1838      3A2000
 1839 0017 00       		.align	2
 1840              	.LC35:
 1841 0018 526F7461 		.ascii	"Rota: \000"
 1841      3A2000
 1842              		.section	.text.main,"ax",%progbits
 1843              		.align	1
 1844              		.global	main
 1845              		.syntax unified
 1846              		.thumb
 1847              		.thumb_func
 1849              	main:
ARM GAS  C:\Users\Admin\AppData\Local\Temp\ccOfIyoO.s 			page 55


 1850              	.LFB75:
 167:Core/Src/main.c ****   /* USER CODE BEGIN 1 */
 1851              		.loc 1 167 1 view -0
 1852              		.cfi_startproc
 1853              		@ Volatile: function does not return.
 1854              		@ args = 0, pretend = 0, frame = 144
 1855              		@ frame_needed = 0, uses_anonymous_args = 0
 1856 0000 00B5     		push	{lr}
 1857              	.LCFI26:
 1858              		.cfi_def_cfa_offset 4
 1859              		.cfi_offset 14, -4
 1860 0002 A9B0     		sub	sp, sp, #164
 1861              	.LCFI27:
 1862              		.cfi_def_cfa_offset 168
 175:Core/Src/main.c **** 
 1863              		.loc 1 175 3 view .LVU425
 1864 0004 FFF7FEFF 		bl	HAL_Init
 1865              	.LVL137:
 182:Core/Src/main.c **** 
 1866              		.loc 1 182 3 view .LVU426
 1867 0008 FFF7FEFF 		bl	SystemClock_Config
 1868              	.LVL138:
 189:Core/Src/main.c ****   MX_USART3_UART_Init();
 1869              		.loc 1 189 3 view .LVU427
 1870 000c FFF7FEFF 		bl	MX_GPIO_Init
 1871              	.LVL139:
 190:Core/Src/main.c ****   MX_SPI2_Init();
 1872              		.loc 1 190 3 view .LVU428
 1873 0010 FFF7FEFF 		bl	MX_USART3_UART_Init
 1874              	.LVL140:
 191:Core/Src/main.c ****   MX_TIM2_Init();
 1875              		.loc 1 191 3 view .LVU429
 1876 0014 FFF7FEFF 		bl	MX_SPI2_Init
 1877              	.LVL141:
 192:Core/Src/main.c ****   MX_TIM3_Init();
 1878              		.loc 1 192 3 view .LVU430
 1879 0018 FFF7FEFF 		bl	MX_TIM2_Init
 1880              	.LVL142:
 193:Core/Src/main.c ****   /* USER CODE BEGIN 2 */
 1881              		.loc 1 193 3 view .LVU431
 1882 001c FFF7FEFF 		bl	MX_TIM3_Init
 1883              	.LVL143:
 195:Core/Src/main.c ****   HAL_TIM_PWM_Start(&htim3, TIM_CHANNEL_1);
 1884              		.loc 1 195 3 view .LVU432
 1885 0020 0122     		movs	r2, #1
 1886 0022 5949     		ldr	r1, .L118
 1887 0024 5948     		ldr	r0, .L118+4
 1888 0026 FFF7FEFF 		bl	HAL_UART_Receive_IT
 1889              	.LVL144:
 196:Core/Src/main.c ****   ST7735_Init();
 1890              		.loc 1 196 3 view .LVU433
 1891 002a 0021     		movs	r1, #0
 1892 002c 5848     		ldr	r0, .L118+8
 1893 002e FFF7FEFF 		bl	HAL_TIM_PWM_Start
 1894              	.LVL145:
 197:Core/Src/main.c ****   HAL_TIM_Base_Start(&htim2);
 1895              		.loc 1 197 3 view .LVU434
ARM GAS  C:\Users\Admin\AppData\Local\Temp\ccOfIyoO.s 			page 56


 1896 0032 FFF7FEFF 		bl	ST7735_Init
 1897              	.LVL146:
 198:Core/Src/main.c ****   ST7735_FillScreen(ST7735_BLACK);
 1898              		.loc 1 198 3 view .LVU435
 1899 0036 5748     		ldr	r0, .L118+12
 1900 0038 FFF7FEFF 		bl	HAL_TIM_Base_Start
 1901              	.LVL147:
 199:Core/Src/main.c ****   ST7735_WriteString(25, 0, "Team 17", Font_11x18, ST7735_RED, ST7735_BLACK);
 1902              		.loc 1 199 3 view .LVU436
 1903 003c 0020     		movs	r0, #0
 1904 003e FFF7FEFF 		bl	ST7735_FillScreen
 1905              	.LVL148:
 200:Core/Src/main.c ****   ST7735_WriteString(0, 30, "Temp: ", Font_11x18, ST7735_RED, ST7735_BLACK);
 1906              		.loc 1 200 3 view .LVU437
 1907 0042 554D     		ldr	r5, .L118+16
 1908 0044 0024     		movs	r4, #0
 1909 0046 0294     		str	r4, [sp, #8]
 1910 0048 4FF47846 		mov	r6, #63488
 1911 004c 0196     		str	r6, [sp, #4]
 1912 004e 6B68     		ldr	r3, [r5, #4]
 1913 0050 0093     		str	r3, [sp]
 1914 0052 2B68     		ldr	r3, [r5]
 1915 0054 514A     		ldr	r2, .L118+20
 1916 0056 2146     		mov	r1, r4
 1917 0058 1920     		movs	r0, #25
 1918 005a FFF7FEFF 		bl	ST7735_WriteString
 1919              	.LVL149:
 201:Core/Src/main.c ****   ST7735_WriteString(0, 3 * 10 * 2, "Humi: ", Font_11x18, ST7735_RED, ST7735_BLACK);
 1920              		.loc 1 201 3 view .LVU438
 1921 005e 0294     		str	r4, [sp, #8]
 1922 0060 0196     		str	r6, [sp, #4]
 1923 0062 6B68     		ldr	r3, [r5, #4]
 1924 0064 0093     		str	r3, [sp]
 1925 0066 2B68     		ldr	r3, [r5]
 1926 0068 4D4A     		ldr	r2, .L118+24
 1927 006a 1E21     		movs	r1, #30
 1928 006c 2046     		mov	r0, r4
 1929 006e FFF7FEFF 		bl	ST7735_WriteString
 1930              	.LVL150:
 202:Core/Src/main.c ****   ST7735_WriteString(0, 3 * 10 * 3, "Rota: ", Font_11x18, ST7735_GREEN, ST7735_BLACK);
 1931              		.loc 1 202 3 view .LVU439
 1932 0072 0294     		str	r4, [sp, #8]
 1933 0074 0196     		str	r6, [sp, #4]
 1934 0076 6B68     		ldr	r3, [r5, #4]
 1935 0078 0093     		str	r3, [sp]
 1936 007a 2B68     		ldr	r3, [r5]
 1937 007c 494A     		ldr	r2, .L118+28
 1938 007e 3C21     		movs	r1, #60
 1939 0080 2046     		mov	r0, r4
 1940 0082 FFF7FEFF 		bl	ST7735_WriteString
 1941              	.LVL151:
 203:Core/Src/main.c ****   // sprintf(thres_tring,"Thresh: %.1f",PC_threshold);
 1942              		.loc 1 203 3 view .LVU440
 1943 0086 0294     		str	r4, [sp, #8]
 1944 0088 4FF4FC66 		mov	r6, #2016
 1945 008c 0196     		str	r6, [sp, #4]
 1946 008e 6B68     		ldr	r3, [r5, #4]
ARM GAS  C:\Users\Admin\AppData\Local\Temp\ccOfIyoO.s 			page 57


 1947 0090 0093     		str	r3, [sp]
 1948 0092 2B68     		ldr	r3, [r5]
 1949 0094 444A     		ldr	r2, .L118+32
 1950 0096 5A21     		movs	r1, #90
 1951 0098 2046     		mov	r0, r4
 1952 009a FFF7FEFF 		bl	ST7735_WriteString
 1953              	.LVL152:
 206:Core/Src/main.c ****   /* USER CODE END 2 */
 1954              		.loc 1 206 3 view .LVU441
 1955 009e 0294     		str	r4, [sp, #8]
 1956 00a0 0196     		str	r6, [sp, #4]
 1957 00a2 6B68     		ldr	r3, [r5, #4]
 1958 00a4 0093     		str	r3, [sp]
 1959 00a6 2B68     		ldr	r3, [r5]
 1960 00a8 404A     		ldr	r2, .L118+36
 1961 00aa 7821     		movs	r1, #120
 1962 00ac 2046     		mov	r0, r4
 1963 00ae FFF7FEFF 		bl	ST7735_WriteString
 1964              	.LVL153:
 215:Core/Src/main.c ****   SensorSemHandle = osSemaphoreCreate(osSemaphore(SensorSem), 1);
 1965              		.loc 1 215 3 view .LVU442
 1966 00b2 2694     		str	r4, [sp, #152]
 1967 00b4 2794     		str	r4, [sp, #156]
 216:Core/Src/main.c **** 
 1968              		.loc 1 216 3 view .LVU443
 216:Core/Src/main.c **** 
 1969              		.loc 1 216 21 is_stmt 0 view .LVU444
 1970 00b6 0121     		movs	r1, #1
 1971 00b8 26A8     		add	r0, sp, #152
 1972 00ba FFF7FEFF 		bl	osSemaphoreCreate
 1973              	.LVL154:
 216:Core/Src/main.c **** 
 1974              		.loc 1 216 19 view .LVU445
 1975 00be 3C4B     		ldr	r3, .L118+40
 1976 00c0 1860     		str	r0, [r3]
 219:Core/Src/main.c ****   ServoSemHandle = osSemaphoreCreate(osSemaphore(ServoSem), 1);
 1977              		.loc 1 219 3 is_stmt 1 view .LVU446
 1978 00c2 2494     		str	r4, [sp, #144]
 1979 00c4 2594     		str	r4, [sp, #148]
 220:Core/Src/main.c **** 
 1980              		.loc 1 220 3 view .LVU447
 220:Core/Src/main.c **** 
 1981              		.loc 1 220 20 is_stmt 0 view .LVU448
 1982 00c6 0121     		movs	r1, #1
 1983 00c8 24A8     		add	r0, sp, #144
 1984 00ca FFF7FEFF 		bl	osSemaphoreCreate
 1985              	.LVL155:
 220:Core/Src/main.c **** 
 1986              		.loc 1 220 18 view .LVU449
 1987 00ce 394B     		ldr	r3, .L118+44
 1988 00d0 1860     		str	r0, [r3]
 223:Core/Src/main.c ****   DataSemHandle = osSemaphoreCreate(osSemaphore(DataSem), 1);
 1989              		.loc 1 223 3 is_stmt 1 view .LVU450
 1990 00d2 2294     		str	r4, [sp, #136]
 1991 00d4 2394     		str	r4, [sp, #140]
 224:Core/Src/main.c **** 
 1992              		.loc 1 224 3 view .LVU451
ARM GAS  C:\Users\Admin\AppData\Local\Temp\ccOfIyoO.s 			page 58


 224:Core/Src/main.c **** 
 1993              		.loc 1 224 19 is_stmt 0 view .LVU452
 1994 00d6 0121     		movs	r1, #1
 1995 00d8 22A8     		add	r0, sp, #136
 1996 00da FFF7FEFF 		bl	osSemaphoreCreate
 1997              	.LVL156:
 224:Core/Src/main.c **** 
 1998              		.loc 1 224 17 view .LVU453
 1999 00de 364B     		ldr	r3, .L118+48
 2000 00e0 1860     		str	r0, [r3]
 227:Core/Src/main.c ****   IRQSemHandle = osSemaphoreCreate(osSemaphore(IRQSem), 1);
 2001              		.loc 1 227 3 is_stmt 1 view .LVU454
 2002 00e2 2094     		str	r4, [sp, #128]
 2003 00e4 2194     		str	r4, [sp, #132]
 228:Core/Src/main.c **** 
 2004              		.loc 1 228 3 view .LVU455
 228:Core/Src/main.c **** 
 2005              		.loc 1 228 18 is_stmt 0 view .LVU456
 2006 00e6 0121     		movs	r1, #1
 2007 00e8 20A8     		add	r0, sp, #128
 2008 00ea FFF7FEFF 		bl	osSemaphoreCreate
 2009              	.LVL157:
 228:Core/Src/main.c **** 
 2010              		.loc 1 228 16 view .LVU457
 2011 00ee 334B     		ldr	r3, .L118+52
 2012 00f0 1860     		str	r0, [r3]
 244:Core/Src/main.c ****   Task1Handle = osThreadCreate(osThread(Task1), NULL);
 2013              		.loc 1 244 3 is_stmt 1 view .LVU458
 2014 00f2 334D     		ldr	r5, .L118+56
 2015 00f4 0DF1640C 		add	ip, sp, #100
 2016 00f8 AE46     		mov	lr, r5
 2017 00fa BEE80F00 		ldmia	lr!, {r0, r1, r2, r3}
 2018 00fe ACE80F00 		stmia	ip!, {r0, r1, r2, r3}
 2019 0102 9EE80700 		ldm	lr, {r0, r1, r2}
 2020 0106 8CE80700 		stm	ip, {r0, r1, r2}
 245:Core/Src/main.c **** 
 2021              		.loc 1 245 3 view .LVU459
 245:Core/Src/main.c **** 
 2022              		.loc 1 245 17 is_stmt 0 view .LVU460
 2023 010a 2146     		mov	r1, r4
 2024 010c 19A8     		add	r0, sp, #100
 2025 010e FFF7FEFF 		bl	osThreadCreate
 2026              	.LVL158:
 245:Core/Src/main.c **** 
 2027              		.loc 1 245 15 view .LVU461
 2028 0112 2C4B     		ldr	r3, .L118+60
 2029 0114 1860     		str	r0, [r3]
 248:Core/Src/main.c ****   Task2Handle = osThreadCreate(osThread(Task2), NULL);
 2030              		.loc 1 248 3 is_stmt 1 view .LVU462
 2031 0116 0DF1480C 		add	ip, sp, #72
 2032 011a 05F11C0E 		add	lr, r5, #28
 2033 011e BEE80F00 		ldmia	lr!, {r0, r1, r2, r3}
 2034 0122 ACE80F00 		stmia	ip!, {r0, r1, r2, r3}
 2035 0126 9EE80700 		ldm	lr, {r0, r1, r2}
 2036 012a 8CE80700 		stm	ip, {r0, r1, r2}
 249:Core/Src/main.c **** 
 2037              		.loc 1 249 3 view .LVU463
ARM GAS  C:\Users\Admin\AppData\Local\Temp\ccOfIyoO.s 			page 59


 249:Core/Src/main.c **** 
 2038              		.loc 1 249 17 is_stmt 0 view .LVU464
 2039 012e 2146     		mov	r1, r4
 2040 0130 12A8     		add	r0, sp, #72
 2041 0132 FFF7FEFF 		bl	osThreadCreate
 2042              	.LVL159:
 249:Core/Src/main.c **** 
 2043              		.loc 1 249 15 view .LVU465
 2044 0136 244B     		ldr	r3, .L118+64
 2045 0138 1860     		str	r0, [r3]
 252:Core/Src/main.c ****   Task3Handle = osThreadCreate(osThread(Task3), NULL);
 2046              		.loc 1 252 3 is_stmt 1 view .LVU466
 2047 013a 0DF12C0C 		add	ip, sp, #44
 2048 013e 05F1380E 		add	lr, r5, #56
 2049 0142 BEE80F00 		ldmia	lr!, {r0, r1, r2, r3}
 2050 0146 ACE80F00 		stmia	ip!, {r0, r1, r2, r3}
 2051 014a 9EE80700 		ldm	lr, {r0, r1, r2}
 2052 014e 8CE80700 		stm	ip, {r0, r1, r2}
 253:Core/Src/main.c **** 
 2053              		.loc 1 253 3 view .LVU467
 253:Core/Src/main.c **** 
 2054              		.loc 1 253 17 is_stmt 0 view .LVU468
 2055 0152 2146     		mov	r1, r4
 2056 0154 0BA8     		add	r0, sp, #44
 2057 0156 FFF7FEFF 		bl	osThreadCreate
 2058              	.LVL160:
 253:Core/Src/main.c **** 
 2059              		.loc 1 253 15 view .LVU469
 2060 015a 1C4B     		ldr	r3, .L118+68
 2061 015c 1860     		str	r0, [r3]
 256:Core/Src/main.c ****   Task4Handle = osThreadCreate(osThread(Task4), NULL);
 2062              		.loc 1 256 3 is_stmt 1 view .LVU470
 2063 015e 0DF1100E 		add	lr, sp, #16
 2064 0162 05F1540C 		add	ip, r5, #84
 2065 0166 BCE80F00 		ldmia	ip!, {r0, r1, r2, r3}
 2066 016a AEE80F00 		stmia	lr!, {r0, r1, r2, r3}
 2067 016e 9CE80700 		ldm	ip, {r0, r1, r2}
 2068 0172 8EE80700 		stm	lr, {r0, r1, r2}
 257:Core/Src/main.c **** 
 2069              		.loc 1 257 3 view .LVU471
 257:Core/Src/main.c **** 
 2070              		.loc 1 257 17 is_stmt 0 view .LVU472
 2071 0176 2146     		mov	r1, r4
 2072 0178 04A8     		add	r0, sp, #16
 2073 017a FFF7FEFF 		bl	osThreadCreate
 2074              	.LVL161:
 257:Core/Src/main.c **** 
 2075              		.loc 1 257 15 view .LVU473
 2076 017e 144B     		ldr	r3, .L118+72
 2077 0180 1860     		str	r0, [r3]
 264:Core/Src/main.c **** 
 2078              		.loc 1 264 3 is_stmt 1 view .LVU474
 2079 0182 FFF7FEFF 		bl	osKernelStart
 2080              	.LVL162:
 2081              	.L116:
 269:Core/Src/main.c ****   {
 2082              		.loc 1 269 3 discriminator 1 view .LVU475
ARM GAS  C:\Users\Admin\AppData\Local\Temp\ccOfIyoO.s 			page 60


 274:Core/Src/main.c ****   /* USER CODE END 3 */
 2083              		.loc 1 274 3 discriminator 1 view .LVU476
 269:Core/Src/main.c ****   {
 2084              		.loc 1 269 9 discriminator 1 view .LVU477
 2085 0186 FEE7     		b	.L116
 2086              	.L119:
 2087              		.align	2
 2088              	.L118:
 2089 0188 00000000 		.word	.LANCHOR20
 2090 018c 00000000 		.word	.LANCHOR0
 2091 0190 00000000 		.word	.LANCHOR25
 2092 0194 00000000 		.word	.LANCHOR24
 2093 0198 00000000 		.word	Font_11x18
 2094 019c 00000000 		.word	.LC32
 2095 01a0 08000000 		.word	.LC33
 2096 01a4 10000000 		.word	.LC34
 2097 01a8 18000000 		.word	.LC35
 2098 01ac 00000000 		.word	.LANCHOR26
 2099 01b0 00000000 		.word	.LANCHOR8
 2100 01b4 00000000 		.word	.LANCHOR13
 2101 01b8 00000000 		.word	.LANCHOR9
 2102 01bc 00000000 		.word	.LANCHOR17
 2103 01c0 00000000 		.word	.LANCHOR27
 2104 01c4 00000000 		.word	.LANCHOR28
 2105 01c8 00000000 		.word	.LANCHOR29
 2106 01cc 00000000 		.word	.LANCHOR30
 2107 01d0 00000000 		.word	.LANCHOR31
 2108              		.cfi_endproc
 2109              	.LFE75:
 2111              		.global	RH
 2112              		.global	tFahrenheit
 2113              		.global	tCelsius
 2114              		.global	SUM
 2115              		.global	TCD
 2116              		.global	TCI
 2117              		.global	RHD
 2118              		.global	RHI
 2119              		.global	thres_tring
 2120              		.global	PC_threshold
 2121              		.global	PC_rota
 2122              		.global	angle
 2123              		.global	str_thres
 2124              		.global	label_thres
 2125              		.global	threshold
 2126              		.global	rota
 2127              		.global	count
 2128              		.global	buf_humi
 2129              		.global	buf_temp
 2130              		.global	buf_sensor
 2131              		.global	humi
 2132              		.global	temp
 2133              		.global	Rx_index
 2134              		.global	buffer_data
 2135              		.global	Rx_data
 2136              		.global	Mode
 2137              		.global	IRQSemHandle
 2138              		.global	DataSemHandle
ARM GAS  C:\Users\Admin\AppData\Local\Temp\ccOfIyoO.s 			page 61


 2139              		.global	ServoSemHandle
 2140              		.global	SensorSemHandle
 2141              		.global	Task4Handle
 2142              		.global	Task3Handle
 2143              		.global	Task2Handle
 2144              		.global	Task1Handle
 2145              		.global	huart3
 2146              		.global	htim3
 2147              		.global	htim2
 2148              		.global	hspi2
 2149              		.section	.rodata
 2150              		.align	2
 2151              		.set	.LANCHOR27,. + 0
 2152              	.LC36:
 2153 0000 00000000 		.word	.LC0
 2154 0004 00000000 		.word	Task_Sensor
 2155 0008 0200     		.short	2
 2156 000a 0000     		.space	2
 2157 000c 00000000 		.word	0
 2158 0010 80000000 		.word	128
 2159 0014 00000000 		.word	0
 2160 0018 00000000 		.word	0
 2161              	.LC37:
 2162 001c 08000000 		.word	.LC2
 2163 0020 00000000 		.word	Task_Servo
 2164 0024 0100     		.short	1
 2165 0026 0000     		.space	2
 2166 0028 00000000 		.word	0
 2167 002c 80000000 		.word	128
 2168 0030 00000000 		.word	0
 2169 0034 00000000 		.word	0
 2170              	.LC38:
 2171 0038 10000000 		.word	.LC4
 2172 003c 00000000 		.word	Task_Display
 2173 0040 0000     		.short	0
 2174 0042 0000     		.space	2
 2175 0044 00000000 		.word	0
 2176 0048 80000000 		.word	128
 2177 004c 00000000 		.word	0
 2178 0050 00000000 		.word	0
 2179              	.LC39:
 2180 0054 18000000 		.word	.LC6
 2181 0058 00000000 		.word	Task_Data
 2182 005c FFFF     		.short	-1
 2183 005e 0000     		.space	2
 2184 0060 00000000 		.word	0
 2185 0064 80000000 		.word	128
 2186 0068 00000000 		.word	0
 2187 006c 00000000 		.word	0
 2188              		.section	.bss.DataSemHandle,"aw",%nobits
 2189              		.align	2
 2190              		.set	.LANCHOR9,. + 0
 2193              	DataSemHandle:
 2194 0000 00000000 		.space	4
 2195              		.section	.bss.IRQSemHandle,"aw",%nobits
 2196              		.align	2
 2197              		.set	.LANCHOR17,. + 0
ARM GAS  C:\Users\Admin\AppData\Local\Temp\ccOfIyoO.s 			page 62


 2200              	IRQSemHandle:
 2201 0000 00000000 		.space	4
 2202              		.section	.bss.Mode,"aw",%nobits
 2203              		.align	2
 2204              		.set	.LANCHOR10,. + 0
 2207              	Mode:
 2208 0000 00000000 		.space	4
 2209              		.section	.bss.PC_rota,"aw",%nobits
 2210              		.align	2
 2211              		.set	.LANCHOR12,. + 0
 2214              	PC_rota:
 2215 0000 00000000 		.space	4
 2216              		.section	.bss.RH,"aw",%nobits
 2217              		.align	2
 2220              	RH:
 2221 0000 00000000 		.space	4
 2222              		.section	.bss.RHD,"aw",%nobits
 2223              		.set	.LANCHOR2,. + 0
 2226              	RHD:
 2227 0000 00       		.space	1
 2228              		.section	.bss.RHI,"aw",%nobits
 2229              		.set	.LANCHOR1,. + 0
 2232              	RHI:
 2233 0000 00       		.space	1
 2234              		.section	.bss.Rx_data,"aw",%nobits
 2235              		.set	.LANCHOR20,. + 0
 2238              	Rx_data:
 2239 0000 00       		.space	1
 2240              		.section	.bss.Rx_index,"aw",%nobits
 2241              		.align	2
 2242              		.set	.LANCHOR21,. + 0
 2245              	Rx_index:
 2246 0000 00000000 		.space	4
 2247              		.section	.bss.SUM,"aw",%nobits
 2248              		.set	.LANCHOR5,. + 0
 2251              	SUM:
 2252 0000 00       		.space	1
 2253              		.section	.bss.SensorSemHandle,"aw",%nobits
 2254              		.align	2
 2255              		.set	.LANCHOR8,. + 0
 2258              	SensorSemHandle:
 2259 0000 00000000 		.space	4
 2260              		.section	.bss.ServoSemHandle,"aw",%nobits
 2261              		.align	2
 2262              		.set	.LANCHOR13,. + 0
 2265              	ServoSemHandle:
 2266 0000 00000000 		.space	4
 2267              		.section	.bss.TCD,"aw",%nobits
 2268              		.set	.LANCHOR4,. + 0
 2271              	TCD:
 2272 0000 00       		.space	1
 2273              		.section	.bss.TCI,"aw",%nobits
 2274              		.set	.LANCHOR3,. + 0
 2277              	TCI:
 2278 0000 00       		.space	1
 2279              		.section	.bss.Task1Handle,"aw",%nobits
 2280              		.align	2
ARM GAS  C:\Users\Admin\AppData\Local\Temp\ccOfIyoO.s 			page 63


 2281              		.set	.LANCHOR28,. + 0
 2284              	Task1Handle:
 2285 0000 00000000 		.space	4
 2286              		.section	.bss.Task2Handle,"aw",%nobits
 2287              		.align	2
 2288              		.set	.LANCHOR29,. + 0
 2291              	Task2Handle:
 2292 0000 00000000 		.space	4
 2293              		.section	.bss.Task3Handle,"aw",%nobits
 2294              		.align	2
 2295              		.set	.LANCHOR30,. + 0
 2298              	Task3Handle:
 2299 0000 00000000 		.space	4
 2300              		.section	.bss.Task4Handle,"aw",%nobits
 2301              		.align	2
 2302              		.set	.LANCHOR31,. + 0
 2305              	Task4Handle:
 2306 0000 00000000 		.space	4
 2307              		.section	.bss.angle,"aw",%nobits
 2308              		.align	2
 2311              	angle:
 2312 0000 00000000 		.space	4
 2313              		.section	.bss.buf_humi,"aw",%nobits
 2314              		.align	2
 2315              		.set	.LANCHOR15,. + 0
 2318              	buf_humi:
 2319 0000 00000000 		.space	20
 2319      00000000 
 2319      00000000 
 2319      00000000 
 2319      00000000 
 2320              		.section	.bss.buf_sensor,"aw",%nobits
 2321              		.align	2
 2324              	buf_sensor:
 2325 0000 00000000 		.space	20
 2325      00000000 
 2325      00000000 
 2325      00000000 
 2325      00000000 
 2326              		.section	.bss.buf_temp,"aw",%nobits
 2327              		.align	2
 2328              		.set	.LANCHOR14,. + 0
 2331              	buf_temp:
 2332 0000 00000000 		.space	20
 2332      00000000 
 2332      00000000 
 2332      00000000 
 2332      00000000 
 2333              		.section	.bss.buffer_data,"aw",%nobits
 2334              		.align	2
 2335              		.set	.LANCHOR18,. + 0
 2338              	buffer_data:
 2339 0000 00000000 		.space	50
 2339      00000000 
 2339      00000000 
 2339      00000000 
 2339      00000000 
ARM GAS  C:\Users\Admin\AppData\Local\Temp\ccOfIyoO.s 			page 64


 2340              		.section	.bss.hspi2,"aw",%nobits
 2341              		.align	2
 2342              		.set	.LANCHOR23,. + 0
 2345              	hspi2:
 2346 0000 00000000 		.space	88
 2346      00000000 
 2346      00000000 
 2346      00000000 
 2346      00000000 
 2347              		.section	.bss.htim2,"aw",%nobits
 2348              		.align	2
 2349              		.set	.LANCHOR24,. + 0
 2352              	htim2:
 2353 0000 00000000 		.space	72
 2353      00000000 
 2353      00000000 
 2353      00000000 
 2353      00000000 
 2354              		.section	.bss.htim3,"aw",%nobits
 2355              		.align	2
 2356              		.set	.LANCHOR25,. + 0
 2359              	htim3:
 2360 0000 00000000 		.space	72
 2360      00000000 
 2360      00000000 
 2360      00000000 
 2360      00000000 
 2361              		.section	.bss.huart3,"aw",%nobits
 2362              		.align	2
 2363              		.set	.LANCHOR0,. + 0
 2366              	huart3:
 2367 0000 00000000 		.space	68
 2367      00000000 
 2367      00000000 
 2367      00000000 
 2367      00000000 
 2368              		.section	.bss.humi,"aw",%nobits
 2369              		.align	2
 2370              		.set	.LANCHOR7,. + 0
 2373              	humi:
 2374 0000 00000000 		.space	4
 2375              		.section	.bss.label_thres,"aw",%nobits
 2376              		.align	2
 2377              		.set	.LANCHOR22,. + 0
 2380              	label_thres:
 2381 0000 00000000 		.space	10
 2381      00000000 
 2381      0000
 2382              		.section	.bss.rota,"aw",%nobits
 2383              		.align	2
 2384              		.set	.LANCHOR16,. + 0
 2387              	rota:
 2388 0000 00000000 		.space	20
 2388      00000000 
 2388      00000000 
 2388      00000000 
 2388      00000000 
ARM GAS  C:\Users\Admin\AppData\Local\Temp\ccOfIyoO.s 			page 65


 2389              		.section	.bss.str_thres,"aw",%nobits
 2390              		.align	2
 2391              		.set	.LANCHOR19,. + 0
 2394              	str_thres:
 2395 0000 00000000 		.space	5
 2395      00
 2396              		.section	.bss.tCelsius,"aw",%nobits
 2397              		.align	2
 2400              	tCelsius:
 2401 0000 00000000 		.space	4
 2402              		.section	.bss.tFahrenheit,"aw",%nobits
 2403              		.align	2
 2406              	tFahrenheit:
 2407 0000 00000000 		.space	4
 2408              		.section	.bss.temp,"aw",%nobits
 2409              		.align	2
 2410              		.set	.LANCHOR6,. + 0
 2413              	temp:
 2414 0000 00000000 		.space	4
 2415              		.section	.bss.threshold,"aw",%nobits
 2416              		.align	2
 2419              	threshold:
 2420 0000 00000000 		.space	20
 2420      00000000 
 2420      00000000 
 2420      00000000 
 2420      00000000 
 2421              		.section	.data.PC_threshold,"aw"
 2422              		.align	2
 2423              		.set	.LANCHOR11,. + 0
 2426              	PC_threshold:
 2427 0000 0000F041 		.word	1106247680
 2428              		.section	.data.count,"aw"
 2429              		.align	2
 2432              	count:
 2433 0000 19000000 		.word	25
 2434              		.section	.data.thres_tring,"aw"
 2435              		.align	2
 2436              		.set	.LANCHOR26,. + 0
 2439              	thres_tring:
 2440 0000 54687265 		.ascii	"Thres: 30\000"
 2440      733A2033 
 2440      3000
 2441              		.text
 2442              	.Letext0:
 2443              		.file 3 "d:\\10 2021.10\\arm-none-eabi\\include\\machine\\_default_types.h"
 2444              		.file 4 "d:\\10 2021.10\\arm-none-eabi\\include\\sys\\_stdint.h"
 2445              		.file 5 "Drivers/CMSIS/Device/ST/STM32F1xx/Include/stm32f103xb.h"
 2446              		.file 6 "Drivers/STM32F1xx_HAL_Driver/Inc/stm32f1xx_hal_def.h"
 2447              		.file 7 "Drivers/STM32F1xx_HAL_Driver/Inc/stm32f1xx_hal_rcc.h"
 2448              		.file 8 "Drivers/STM32F1xx_HAL_Driver/Inc/stm32f1xx_hal_rcc_ex.h"
 2449              		.file 9 "Drivers/STM32F1xx_HAL_Driver/Inc/stm32f1xx_hal_gpio.h"
 2450              		.file 10 "Drivers/STM32F1xx_HAL_Driver/Inc/stm32f1xx_hal_dma.h"
 2451              		.file 11 "Drivers/STM32F1xx_HAL_Driver/Inc/stm32f1xx_hal_spi.h"
 2452              		.file 12 "Drivers/STM32F1xx_HAL_Driver/Inc/stm32f1xx_hal_tim.h"
 2453              		.file 13 "Drivers/STM32F1xx_HAL_Driver/Inc/stm32f1xx_hal_uart.h"
 2454              		.file 14 "Middlewares/Third_Party/FreeRTOS/Source/portable/GCC/ARM_CM3/portmacro.h"
ARM GAS  C:\Users\Admin\AppData\Local\Temp\ccOfIyoO.s 			page 66


 2455              		.file 15 "Middlewares/Third_Party/FreeRTOS/Source/include/FreeRTOS.h"
 2456              		.file 16 "Middlewares/Third_Party/FreeRTOS/Source/include/task.h"
 2457              		.file 17 "Middlewares/Third_Party/FreeRTOS/Source/include/queue.h"
 2458              		.file 18 "Middlewares/Third_Party/FreeRTOS/Source/include/semphr.h"
 2459              		.file 19 "Middlewares/Third_Party/FreeRTOS/Source/CMSIS_RTOS/cmsis_os.h"
 2460              		.file 20 "Core/Inc/fonts.h"
 2461              		.file 21 "Core/Inc/st7735.h"
 2462              		.file 22 "Drivers/STM32F1xx_HAL_Driver/Inc/stm32f1xx_hal.h"
 2463              		.file 23 "d:\\10 2021.10\\arm-none-eabi\\include\\stdlib.h"
 2464              		.file 24 "d:\\10 2021.10\\arm-none-eabi\\include\\string.h"
 2465              		.file 25 "d:\\10 2021.10\\arm-none-eabi\\include\\stdio.h"
 2466              		.file 26 "<built-in>"
 2467              		.file 27 "Core/Inc/dht22.h"
 2468              		.file 28 "Drivers/STM32F1xx_HAL_Driver/Inc/stm32f1xx_hal_tim_ex.h"
 2469              		.file 29 "Core/Inc/main.h"
ARM GAS  C:\Users\Admin\AppData\Local\Temp\ccOfIyoO.s 			page 67

