ARM GAS  C:\Users\Admin\AppData\Local\Temp\cc9fDto3.s 			page 1


   1              		.cpu cortex-m3
   2              		.arch armv7-m
   3              		.fpu softvfp
   4              		.eabi_attribute 20, 1
   5              		.eabi_attribute 21, 1
   6              		.eabi_attribute 23, 3
   7              		.eabi_attribute 24, 1
   8              		.eabi_attribute 25, 1
   9              		.eabi_attribute 26, 1
  10              		.eabi_attribute 30, 1
  11              		.eabi_attribute 34, 1
  12              		.eabi_attribute 18, 4
  13              		.file	"main.c"
  14              		.section	.rodata.str1.4,"aMS",%progbits,1
  15              		.align	2
  16              	.LC0:
  17 0000 5461736B 		.ascii	"Task1\000"
  17      3100
  18 0006 0000     		.align	2
  19              	.LC2:
  20 0008 5461736B 		.ascii	"Task2\000"
  20      3200
  21 000e 0000     		.align	2
  22              	.LC4:
  23 0010 5461736B 		.ascii	"Task3\000"
  23      3300
  24 0016 0000     		.align	2
  25              	.LC6:
  26 0018 5461736B 		.ascii	"Task4\000"
  26      3400
  27              		.text
  28              	.Ltext0:
  29              		.cfi_sections	.debug_frame
  30              		.section	.text.MX_GPIO_Init,"ax",%progbits
  31              		.align	1
  32              		.syntax unified
  33              		.thumb
  34              		.thumb_func
  36              	MX_GPIO_Init:
  37              	.LFB78:
  38              		.file 1 "Core/Src/main.c"
   1:Core/Src/main.c **** /* USER CODE BEGIN Header */
   2:Core/Src/main.c **** /**
   3:Core/Src/main.c ****  ******************************************************************************
   4:Core/Src/main.c ****  * @file           : main.c
   5:Core/Src/main.c ****  * @brief          : Main program body
   6:Core/Src/main.c ****  ******************************************************************************
   7:Core/Src/main.c ****  * @attention
   8:Core/Src/main.c ****  *
   9:Core/Src/main.c ****  * Copyright (c) 2023 STMicroelectronics.
  10:Core/Src/main.c ****  * All rights reserved.
  11:Core/Src/main.c ****  *
  12:Core/Src/main.c ****  * This software is licensed under terms that can be found in the LICENSE file
  13:Core/Src/main.c ****  * in the root directory of this software component.
  14:Core/Src/main.c ****  * If no LICENSE file comes with this software, it is provided AS-IS.
  15:Core/Src/main.c ****  *
  16:Core/Src/main.c ****  ******************************************************************************
ARM GAS  C:\Users\Admin\AppData\Local\Temp\cc9fDto3.s 			page 2


  17:Core/Src/main.c ****  */
  18:Core/Src/main.c **** /* USER CODE END Header */
  19:Core/Src/main.c **** /* Includes ------------------------------------------------------------------*/
  20:Core/Src/main.c **** #include "main.h"
  21:Core/Src/main.c **** #include "cmsis_os.h"
  22:Core/Src/main.c **** 
  23:Core/Src/main.c **** /* Private includes ----------------------------------------------------------*/
  24:Core/Src/main.c **** /* USER CODE BEGIN Includes */
  25:Core/Src/main.c **** #include "string.h"
  26:Core/Src/main.c **** #include "stdio.h"
  27:Core/Src/main.c **** #include "stdlib.h"
  28:Core/Src/main.c **** #include "math.h"
  29:Core/Src/main.c **** /* USER CODE END Includes */
  30:Core/Src/main.c **** 
  31:Core/Src/main.c **** /* Private typedef -----------------------------------------------------------*/
  32:Core/Src/main.c **** /* USER CODE BEGIN PTD */
  33:Core/Src/main.c **** 
  34:Core/Src/main.c **** /* USER CODE END PTD */
  35:Core/Src/main.c **** 
  36:Core/Src/main.c **** /* Private define ------------------------------------------------------------*/
  37:Core/Src/main.c **** /* USER CODE BEGIN PD */
  38:Core/Src/main.c **** /* USER CODE END PD */
  39:Core/Src/main.c **** 
  40:Core/Src/main.c **** /* Private macro -------------------------------------------------------------*/
  41:Core/Src/main.c **** /* USER CODE BEGIN PM */
  42:Core/Src/main.c **** 
  43:Core/Src/main.c **** /* USER CODE END PM */
  44:Core/Src/main.c **** 
  45:Core/Src/main.c **** /* Private variables ---------------------------------------------------------*/
  46:Core/Src/main.c **** UART_HandleTypeDef huart3;
  47:Core/Src/main.c **** 
  48:Core/Src/main.c **** osThreadId Task1Handle;
  49:Core/Src/main.c **** osThreadId Task2Handle;
  50:Core/Src/main.c **** osThreadId Task3Handle;
  51:Core/Src/main.c **** osThreadId Task4Handle;
  52:Core/Src/main.c **** osSemaphoreId SensorSemHandle;
  53:Core/Src/main.c **** osSemaphoreId ServoSemHandle;
  54:Core/Src/main.c **** osSemaphoreId DataSemHandle;
  55:Core/Src/main.c **** osSemaphoreId IRQSemHandle;
  56:Core/Src/main.c **** /* USER CODE BEGIN PV */
  57:Core/Src/main.c **** enum
  58:Core/Src/main.c **** {
  59:Core/Src/main.c ****   Mode_auto,
  60:Core/Src/main.c ****   Mode_manual
  61:Core/Src/main.c **** };
  62:Core/Src/main.c **** volatile int Mode = Mode_auto;
  63:Core/Src/main.c **** 
  64:Core/Src/main.c **** uint8_t Rx_data;
  65:Core/Src/main.c **** char buffer_data[50] = {0};
  66:Core/Src/main.c **** volatile int Rx_index = 0;
  67:Core/Src/main.c **** 
  68:Core/Src/main.c **** //example
  69:Core/Src/main.c **** int temp = 30;
  70:Core/Src/main.c **** int humi = 90;
  71:Core/Src/main.c **** 
  72:Core/Src/main.c **** char buf_sensor[20] = {0};
  73:Core/Src/main.c **** char buf_temp[20] = {0};
ARM GAS  C:\Users\Admin\AppData\Local\Temp\cc9fDto3.s 			page 3


  74:Core/Src/main.c **** char buf_humi[20] = {0};
  75:Core/Src/main.c **** 
  76:Core/Src/main.c **** int count = 25;
  77:Core/Src/main.c **** char rota[20] = {0};
  78:Core/Src/main.c **** char threshold[20] = {0};
  79:Core/Src/main.c **** char label_thres[10] = {0};
  80:Core/Src/main.c **** char str_thres[5] = {0};
  81:Core/Src/main.c **** int angle;
  82:Core/Src/main.c **** 
  83:Core/Src/main.c **** int PC_rota;
  84:Core/Src/main.c **** float PC_threshold;
  85:Core/Src/main.c **** /* USER CODE END PV */
  86:Core/Src/main.c **** 
  87:Core/Src/main.c **** /* Private function prototypes -----------------------------------------------*/
  88:Core/Src/main.c **** void SystemClock_Config(void);
  89:Core/Src/main.c **** static void MX_GPIO_Init(void);
  90:Core/Src/main.c **** static void MX_USART3_UART_Init(void);
  91:Core/Src/main.c **** void Task_Sensor(void const *argument);
  92:Core/Src/main.c **** void Task_Servo(void const *argument);
  93:Core/Src/main.c **** void Task_Display(void const *argument);
  94:Core/Src/main.c **** void Task_Data(void const *argument);
  95:Core/Src/main.c **** 
  96:Core/Src/main.c **** /* USER CODE BEGIN PFP */
  97:Core/Src/main.c **** 
  98:Core/Src/main.c **** /* USER CODE END PFP */
  99:Core/Src/main.c **** 
 100:Core/Src/main.c **** /* Private user code ---------------------------------------------------------*/
 101:Core/Src/main.c **** /* USER CODE BEGIN 0 */
 102:Core/Src/main.c **** void log_data(char *buf)
 103:Core/Src/main.c **** {
 104:Core/Src/main.c ****   HAL_UART_Transmit(&huart3, (uint8_t *)buf, strlen(buf), 100);
 105:Core/Src/main.c **** }
 106:Core/Src/main.c **** 
 107:Core/Src/main.c **** void HAL_UART_RxCpltCallback(UART_HandleTypeDef *huart)
 108:Core/Src/main.c **** {
 109:Core/Src/main.c ****   if (huart == &huart3)
 110:Core/Src/main.c ****   {
 111:Core/Src/main.c ****     if (Rx_data == 13)
 112:Core/Src/main.c ****     {
 113:Core/Src/main.c ****       buffer_data[Rx_index] = '\0';
 114:Core/Src/main.c ****       Rx_index = 0;
 115:Core/Src/main.c ****       if (strcmp(buffer_data, "manual") == 0)
 116:Core/Src/main.c ****       {
 117:Core/Src/main.c ****         Mode = Mode_manual;
 118:Core/Src/main.c ****       }
 119:Core/Src/main.c ****       if (strcmp(buffer_data, "auto") == 0)
 120:Core/Src/main.c ****       {
 121:Core/Src/main.c ****         Mode = Mode_auto;
 122:Core/Src/main.c ****       }
 123:Core/Src/main.c ****       osSemaphoreRelease(IRQSemHandle);
 124:Core/Src/main.c ****     }
 125:Core/Src/main.c ****     else
 126:Core/Src/main.c ****     {
 127:Core/Src/main.c ****       buffer_data[Rx_index] = (char)Rx_data;
 128:Core/Src/main.c ****       Rx_index++;
 129:Core/Src/main.c ****       // log_data((char*)Rx_data);
 130:Core/Src/main.c ****     }
ARM GAS  C:\Users\Admin\AppData\Local\Temp\cc9fDto3.s 			page 4


 131:Core/Src/main.c ****     HAL_UART_Receive_IT(&huart3, &Rx_data, 1);
 132:Core/Src/main.c ****   }
 133:Core/Src/main.c **** }
 134:Core/Src/main.c **** /* USER CODE END 0 */
 135:Core/Src/main.c **** 
 136:Core/Src/main.c **** /**
 137:Core/Src/main.c ****  * @brief  The application entry point.
 138:Core/Src/main.c ****  * @retval int
 139:Core/Src/main.c ****  */
 140:Core/Src/main.c **** int main(void)
 141:Core/Src/main.c **** {
 142:Core/Src/main.c ****   /* USER CODE BEGIN 1 */
 143:Core/Src/main.c **** 
 144:Core/Src/main.c ****   /* USER CODE END 1 */
 145:Core/Src/main.c **** 
 146:Core/Src/main.c ****   /* MCU Configuration--------------------------------------------------------*/
 147:Core/Src/main.c **** 
 148:Core/Src/main.c ****   /* Reset of all peripherals, Initializes the Flash interface and the Systick. */
 149:Core/Src/main.c ****   HAL_Init();
 150:Core/Src/main.c **** 
 151:Core/Src/main.c ****   /* USER CODE BEGIN Init */
 152:Core/Src/main.c **** 
 153:Core/Src/main.c ****   /* USER CODE END Init */
 154:Core/Src/main.c **** 
 155:Core/Src/main.c ****   /* Configure the system clock */
 156:Core/Src/main.c ****   SystemClock_Config();
 157:Core/Src/main.c **** 
 158:Core/Src/main.c ****   /* USER CODE BEGIN SysInit */
 159:Core/Src/main.c **** 
 160:Core/Src/main.c ****   /* USER CODE END SysInit */
 161:Core/Src/main.c **** 
 162:Core/Src/main.c ****   /* Initialize all configured peripherals */
 163:Core/Src/main.c ****   MX_GPIO_Init();
 164:Core/Src/main.c ****   MX_USART3_UART_Init();
 165:Core/Src/main.c ****   /* USER CODE BEGIN 2 */
 166:Core/Src/main.c ****   HAL_UART_Receive_IT(&huart3, &Rx_data, 1);
 167:Core/Src/main.c ****   /* USER CODE END 2 */
 168:Core/Src/main.c **** 
 169:Core/Src/main.c ****   /* USER CODE BEGIN RTOS_MUTEX */
 170:Core/Src/main.c ****   /* add mutexes, ... */
 171:Core/Src/main.c ****   /* USER CODE END RTOS_MUTEX */
 172:Core/Src/main.c **** 
 173:Core/Src/main.c ****   /* Create the semaphores(s) */
 174:Core/Src/main.c ****   /* definition and creation of SensorSem */
 175:Core/Src/main.c ****   osSemaphoreDef(SensorSem);
 176:Core/Src/main.c ****   SensorSemHandle = osSemaphoreCreate(osSemaphore(SensorSem), 1);
 177:Core/Src/main.c **** 
 178:Core/Src/main.c ****   /* definition and creation of ServoSem */
 179:Core/Src/main.c ****   osSemaphoreDef(ServoSem);
 180:Core/Src/main.c ****   ServoSemHandle = osSemaphoreCreate(osSemaphore(ServoSem), 1);
 181:Core/Src/main.c **** 
 182:Core/Src/main.c ****   /* definition and creation of DataSem */
 183:Core/Src/main.c ****   osSemaphoreDef(DataSem);
 184:Core/Src/main.c ****   DataSemHandle = osSemaphoreCreate(osSemaphore(DataSem), 1);
 185:Core/Src/main.c **** 
 186:Core/Src/main.c ****   /* definition and creation of IRQSem */
 187:Core/Src/main.c ****   osSemaphoreDef(IRQSem);
ARM GAS  C:\Users\Admin\AppData\Local\Temp\cc9fDto3.s 			page 5


 188:Core/Src/main.c ****   IRQSemHandle = osSemaphoreCreate(osSemaphore(IRQSem), 1);
 189:Core/Src/main.c **** 
 190:Core/Src/main.c ****   /* USER CODE BEGIN RTOS_SEMAPHORES */
 191:Core/Src/main.c ****   /* add semaphores, ... */
 192:Core/Src/main.c ****   /* USER CODE END RTOS_SEMAPHORES */
 193:Core/Src/main.c **** 
 194:Core/Src/main.c ****   /* USER CODE BEGIN RTOS_TIMERS */
 195:Core/Src/main.c ****   /* start timers, add new ones, ... */
 196:Core/Src/main.c ****   /* USER CODE END RTOS_TIMERS */
 197:Core/Src/main.c **** 
 198:Core/Src/main.c ****   /* USER CODE BEGIN RTOS_QUEUES */
 199:Core/Src/main.c ****   /* add queues, ... */
 200:Core/Src/main.c ****   /* USER CODE END RTOS_QUEUES */
 201:Core/Src/main.c **** 
 202:Core/Src/main.c ****   /* Create the thread(s) */
 203:Core/Src/main.c ****   /* definition and creation of Task1 */
 204:Core/Src/main.c ****   osThreadDef(Task1, Task_Sensor, osPriorityHigh, 0, 128);
 205:Core/Src/main.c ****   Task1Handle = osThreadCreate(osThread(Task1), NULL);
 206:Core/Src/main.c **** 
 207:Core/Src/main.c ****   /* definition and creation of Task2 */
 208:Core/Src/main.c ****   osThreadDef(Task2, Task_Servo, osPriorityAboveNormal, 0, 128);
 209:Core/Src/main.c ****   Task2Handle = osThreadCreate(osThread(Task2), NULL);
 210:Core/Src/main.c **** 
 211:Core/Src/main.c ****   /* definition and creation of Task3 */
 212:Core/Src/main.c ****   osThreadDef(Task3, Task_Display, osPriorityNormal, 0, 128);
 213:Core/Src/main.c ****   Task3Handle = osThreadCreate(osThread(Task3), NULL);
 214:Core/Src/main.c **** 
 215:Core/Src/main.c ****   /* definition and creation of Task4 */
 216:Core/Src/main.c ****   osThreadDef(Task4, Task_Data, osPriorityBelowNormal, 0, 128);
 217:Core/Src/main.c ****   Task4Handle = osThreadCreate(osThread(Task4), NULL);
 218:Core/Src/main.c **** 
 219:Core/Src/main.c ****   /* USER CODE BEGIN RTOS_THREADS */
 220:Core/Src/main.c ****   /* add threads, ... */
 221:Core/Src/main.c ****   /* USER CODE END RTOS_THREADS */
 222:Core/Src/main.c ****   log_data("start\n");
 223:Core/Src/main.c ****   /* Start scheduler */
 224:Core/Src/main.c ****   osKernelStart();
 225:Core/Src/main.c ****   
 226:Core/Src/main.c ****   /* We should never get here as control is now taken by the scheduler */
 227:Core/Src/main.c ****   /* Infinite loop */
 228:Core/Src/main.c ****   /* USER CODE BEGIN WHILE */
 229:Core/Src/main.c ****   while (1)
 230:Core/Src/main.c ****   {
 231:Core/Src/main.c ****     /* USER CODE END WHILE */
 232:Core/Src/main.c **** 
 233:Core/Src/main.c ****     /* USER CODE BEGIN 3 */
 234:Core/Src/main.c ****   }
 235:Core/Src/main.c ****   /* USER CODE END 3 */
 236:Core/Src/main.c **** }
 237:Core/Src/main.c **** 
 238:Core/Src/main.c **** /**
 239:Core/Src/main.c ****  * @brief System Clock Configuration
 240:Core/Src/main.c ****  * @retval None
 241:Core/Src/main.c ****  */
 242:Core/Src/main.c **** void SystemClock_Config(void)
 243:Core/Src/main.c **** {
 244:Core/Src/main.c ****   RCC_OscInitTypeDef RCC_OscInitStruct = {0};
ARM GAS  C:\Users\Admin\AppData\Local\Temp\cc9fDto3.s 			page 6


 245:Core/Src/main.c ****   RCC_ClkInitTypeDef RCC_ClkInitStruct = {0};
 246:Core/Src/main.c **** 
 247:Core/Src/main.c ****   /** Initializes the RCC Oscillators according to the specified parameters
 248:Core/Src/main.c ****    * in the RCC_OscInitTypeDef structure.
 249:Core/Src/main.c ****    */
 250:Core/Src/main.c ****   RCC_OscInitStruct.OscillatorType = RCC_OSCILLATORTYPE_HSE;
 251:Core/Src/main.c ****   RCC_OscInitStruct.HSEState = RCC_HSE_ON;
 252:Core/Src/main.c ****   RCC_OscInitStruct.HSEPredivValue = RCC_HSE_PREDIV_DIV1;
 253:Core/Src/main.c ****   RCC_OscInitStruct.HSIState = RCC_HSI_ON;
 254:Core/Src/main.c ****   RCC_OscInitStruct.PLL.PLLState = RCC_PLL_ON;
 255:Core/Src/main.c ****   RCC_OscInitStruct.PLL.PLLSource = RCC_PLLSOURCE_HSE;
 256:Core/Src/main.c ****   RCC_OscInitStruct.PLL.PLLMUL = RCC_PLL_MUL9;
 257:Core/Src/main.c ****   if (HAL_RCC_OscConfig(&RCC_OscInitStruct) != HAL_OK)
 258:Core/Src/main.c ****   {
 259:Core/Src/main.c ****     Error_Handler();
 260:Core/Src/main.c ****   }
 261:Core/Src/main.c **** 
 262:Core/Src/main.c ****   /** Initializes the CPU, AHB and APB buses clocks
 263:Core/Src/main.c ****    */
 264:Core/Src/main.c ****   RCC_ClkInitStruct.ClockType = RCC_CLOCKTYPE_HCLK | RCC_CLOCKTYPE_SYSCLK | RCC_CLOCKTYPE_PCLK1 | R
 265:Core/Src/main.c ****   RCC_ClkInitStruct.SYSCLKSource = RCC_SYSCLKSOURCE_PLLCLK;
 266:Core/Src/main.c ****   RCC_ClkInitStruct.AHBCLKDivider = RCC_SYSCLK_DIV1;
 267:Core/Src/main.c ****   RCC_ClkInitStruct.APB1CLKDivider = RCC_HCLK_DIV2;
 268:Core/Src/main.c ****   RCC_ClkInitStruct.APB2CLKDivider = RCC_HCLK_DIV1;
 269:Core/Src/main.c **** 
 270:Core/Src/main.c ****   if (HAL_RCC_ClockConfig(&RCC_ClkInitStruct, FLASH_LATENCY_2) != HAL_OK)
 271:Core/Src/main.c ****   {
 272:Core/Src/main.c ****     Error_Handler();
 273:Core/Src/main.c ****   }
 274:Core/Src/main.c **** }
 275:Core/Src/main.c **** 
 276:Core/Src/main.c **** /**
 277:Core/Src/main.c ****  * @brief USART3 Initialization Function
 278:Core/Src/main.c ****  * @param None
 279:Core/Src/main.c ****  * @retval None
 280:Core/Src/main.c ****  */
 281:Core/Src/main.c **** static void MX_USART3_UART_Init(void)
 282:Core/Src/main.c **** {
 283:Core/Src/main.c **** 
 284:Core/Src/main.c ****   /* USER CODE BEGIN USART3_Init 0 */
 285:Core/Src/main.c **** 
 286:Core/Src/main.c ****   /* USER CODE END USART3_Init 0 */
 287:Core/Src/main.c **** 
 288:Core/Src/main.c ****   /* USER CODE BEGIN USART3_Init 1 */
 289:Core/Src/main.c **** 
 290:Core/Src/main.c ****   /* USER CODE END USART3_Init 1 */
 291:Core/Src/main.c ****   huart3.Instance = USART3;
 292:Core/Src/main.c ****   huart3.Init.BaudRate = 115200;
 293:Core/Src/main.c ****   huart3.Init.WordLength = UART_WORDLENGTH_8B;
 294:Core/Src/main.c ****   huart3.Init.StopBits = UART_STOPBITS_1;
 295:Core/Src/main.c ****   huart3.Init.Parity = UART_PARITY_NONE;
 296:Core/Src/main.c ****   huart3.Init.Mode = UART_MODE_TX_RX;
 297:Core/Src/main.c ****   huart3.Init.HwFlowCtl = UART_HWCONTROL_NONE;
 298:Core/Src/main.c ****   huart3.Init.OverSampling = UART_OVERSAMPLING_16;
 299:Core/Src/main.c ****   if (HAL_UART_Init(&huart3) != HAL_OK)
 300:Core/Src/main.c ****   {
 301:Core/Src/main.c ****     Error_Handler();
ARM GAS  C:\Users\Admin\AppData\Local\Temp\cc9fDto3.s 			page 7


 302:Core/Src/main.c ****   }
 303:Core/Src/main.c ****   /* USER CODE BEGIN USART3_Init 2 */
 304:Core/Src/main.c **** 
 305:Core/Src/main.c ****   /* USER CODE END USART3_Init 2 */
 306:Core/Src/main.c **** }
 307:Core/Src/main.c **** 
 308:Core/Src/main.c **** /**
 309:Core/Src/main.c ****  * @brief GPIO Initialization Function
 310:Core/Src/main.c ****  * @param None
 311:Core/Src/main.c ****  * @retval None
 312:Core/Src/main.c ****  */
 313:Core/Src/main.c **** static void MX_GPIO_Init(void)
 314:Core/Src/main.c **** {
  39              		.loc 1 314 1 view -0
  40              		.cfi_startproc
  41              		@ args = 0, pretend = 0, frame = 16
  42              		@ frame_needed = 0, uses_anonymous_args = 0
  43              		@ link register save eliminated.
  44 0000 84B0     		sub	sp, sp, #16
  45              	.LCFI0:
  46              		.cfi_def_cfa_offset 16
 315:Core/Src/main.c **** 
 316:Core/Src/main.c ****   /* GPIO Ports Clock Enable */
 317:Core/Src/main.c ****   __HAL_RCC_GPIOD_CLK_ENABLE();
  47              		.loc 1 317 3 view .LVU1
  48              	.LBB4:
  49              		.loc 1 317 3 view .LVU2
  50              		.loc 1 317 3 view .LVU3
  51 0002 0F4B     		ldr	r3, .L3
  52 0004 9A69     		ldr	r2, [r3, #24]
  53 0006 42F02002 		orr	r2, r2, #32
  54 000a 9A61     		str	r2, [r3, #24]
  55              		.loc 1 317 3 view .LVU4
  56 000c 9A69     		ldr	r2, [r3, #24]
  57 000e 02F02002 		and	r2, r2, #32
  58 0012 0192     		str	r2, [sp, #4]
  59              		.loc 1 317 3 view .LVU5
  60 0014 019A     		ldr	r2, [sp, #4]
  61              	.LBE4:
  62              		.loc 1 317 3 view .LVU6
 318:Core/Src/main.c ****   __HAL_RCC_GPIOB_CLK_ENABLE();
  63              		.loc 1 318 3 view .LVU7
  64              	.LBB5:
  65              		.loc 1 318 3 view .LVU8
  66              		.loc 1 318 3 view .LVU9
  67 0016 9A69     		ldr	r2, [r3, #24]
  68 0018 42F00802 		orr	r2, r2, #8
  69 001c 9A61     		str	r2, [r3, #24]
  70              		.loc 1 318 3 view .LVU10
  71 001e 9A69     		ldr	r2, [r3, #24]
  72 0020 02F00802 		and	r2, r2, #8
  73 0024 0292     		str	r2, [sp, #8]
  74              		.loc 1 318 3 view .LVU11
  75 0026 029A     		ldr	r2, [sp, #8]
  76              	.LBE5:
  77              		.loc 1 318 3 view .LVU12
 319:Core/Src/main.c ****   __HAL_RCC_GPIOA_CLK_ENABLE();
ARM GAS  C:\Users\Admin\AppData\Local\Temp\cc9fDto3.s 			page 8


  78              		.loc 1 319 3 view .LVU13
  79              	.LBB6:
  80              		.loc 1 319 3 view .LVU14
  81              		.loc 1 319 3 view .LVU15
  82 0028 9A69     		ldr	r2, [r3, #24]
  83 002a 42F00402 		orr	r2, r2, #4
  84 002e 9A61     		str	r2, [r3, #24]
  85              		.loc 1 319 3 view .LVU16
  86 0030 9B69     		ldr	r3, [r3, #24]
  87 0032 03F00403 		and	r3, r3, #4
  88 0036 0393     		str	r3, [sp, #12]
  89              		.loc 1 319 3 view .LVU17
  90 0038 039B     		ldr	r3, [sp, #12]
  91              	.LBE6:
  92              		.loc 1 319 3 view .LVU18
 320:Core/Src/main.c **** }
  93              		.loc 1 320 1 is_stmt 0 view .LVU19
  94 003a 04B0     		add	sp, sp, #16
  95              	.LCFI1:
  96              		.cfi_def_cfa_offset 0
  97              		@ sp needed
  98 003c 7047     		bx	lr
  99              	.L4:
 100 003e 00BF     		.align	2
 101              	.L3:
 102 0040 00100240 		.word	1073876992
 103              		.cfi_endproc
 104              	.LFE78:
 106              		.section	.text.log_data,"ax",%progbits
 107              		.align	1
 108              		.global	log_data
 109              		.syntax unified
 110              		.thumb
 111              		.thumb_func
 113              	log_data:
 114              	.LVL0:
 115              	.LFB73:
 103:Core/Src/main.c ****   HAL_UART_Transmit(&huart3, (uint8_t *)buf, strlen(buf), 100);
 116              		.loc 1 103 1 is_stmt 1 view -0
 117              		.cfi_startproc
 118              		@ args = 0, pretend = 0, frame = 0
 119              		@ frame_needed = 0, uses_anonymous_args = 0
 103:Core/Src/main.c ****   HAL_UART_Transmit(&huart3, (uint8_t *)buf, strlen(buf), 100);
 120              		.loc 1 103 1 is_stmt 0 view .LVU21
 121 0000 10B5     		push	{r4, lr}
 122              	.LCFI2:
 123              		.cfi_def_cfa_offset 8
 124              		.cfi_offset 4, -8
 125              		.cfi_offset 14, -4
 126 0002 0446     		mov	r4, r0
 104:Core/Src/main.c **** }
 127              		.loc 1 104 3 is_stmt 1 view .LVU22
 104:Core/Src/main.c **** }
 128              		.loc 1 104 46 is_stmt 0 view .LVU23
 129 0004 FFF7FEFF 		bl	strlen
 130              	.LVL1:
 104:Core/Src/main.c **** }
ARM GAS  C:\Users\Admin\AppData\Local\Temp\cc9fDto3.s 			page 9


 131              		.loc 1 104 3 view .LVU24
 132 0008 6423     		movs	r3, #100
 133 000a 82B2     		uxth	r2, r0
 134 000c 2146     		mov	r1, r4
 135 000e 0248     		ldr	r0, .L7
 136 0010 FFF7FEFF 		bl	HAL_UART_Transmit
 137              	.LVL2:
 105:Core/Src/main.c **** 
 138              		.loc 1 105 1 view .LVU25
 139 0014 10BD     		pop	{r4, pc}
 140              	.LVL3:
 141              	.L8:
 105:Core/Src/main.c **** 
 142              		.loc 1 105 1 view .LVU26
 143 0016 00BF     		.align	2
 144              	.L7:
 145 0018 00000000 		.word	.LANCHOR0
 146              		.cfi_endproc
 147              	.LFE73:
 149              		.section	.rodata.Task_Sensor.str1.4,"aMS",%progbits,1
 150              		.align	2
 151              	.LC8:
 152 0000 7461736B 		.ascii	"task sensor\012\000"
 152      2073656E 
 152      736F720A 
 152      00
 153              		.section	.text.Task_Sensor,"ax",%progbits
 154              		.align	1
 155              		.global	Task_Sensor
 156              		.syntax unified
 157              		.thumb
 158              		.thumb_func
 160              	Task_Sensor:
 161              	.LFB79:
 321:Core/Src/main.c **** 
 322:Core/Src/main.c **** /* USER CODE BEGIN 4 */
 323:Core/Src/main.c **** 
 324:Core/Src/main.c **** /* USER CODE END 4 */
 325:Core/Src/main.c **** 
 326:Core/Src/main.c **** /* USER CODE BEGIN Header_Task_Sensor */
 327:Core/Src/main.c **** /**
 328:Core/Src/main.c ****  * @brief  Function implementing the Task1 thread.
 329:Core/Src/main.c ****  * @param  argument: Not used
 330:Core/Src/main.c ****  * @retval None
 331:Core/Src/main.c ****  */
 332:Core/Src/main.c **** /* USER CODE END Header_Task_Sensor */
 333:Core/Src/main.c **** void Task_Sensor(void const *argument)
 334:Core/Src/main.c **** {
 162              		.loc 1 334 1 is_stmt 1 view -0
 163              		.cfi_startproc
 164              		@ Volatile: function does not return.
 165              		@ args = 0, pretend = 0, frame = 0
 166              		@ frame_needed = 0, uses_anonymous_args = 0
 167              	.LVL4:
 168              		.loc 1 334 1 is_stmt 0 view .LVU28
 169 0000 08B5     		push	{r3, lr}
 170              	.LCFI3:
ARM GAS  C:\Users\Admin\AppData\Local\Temp\cc9fDto3.s 			page 10


 171              		.cfi_def_cfa_offset 8
 172              		.cfi_offset 3, -8
 173              		.cfi_offset 14, -4
 174              	.LVL5:
 175              	.L10:
 335:Core/Src/main.c ****   /* USER CODE BEGIN 5 */
 336:Core/Src/main.c ****   /* Infinite loop */
 337:Core/Src/main.c ****   for (;;)
 176              		.loc 1 337 3 is_stmt 1 discriminator 1 view .LVU29
 338:Core/Src/main.c ****   {
 339:Core/Src/main.c ****     log_data("task sensor\n");
 177              		.loc 1 339 5 discriminator 1 view .LVU30
 178 0002 0648     		ldr	r0, .L12
 179 0004 FFF7FEFF 		bl	log_data
 180              	.LVL6:
 340:Core/Src/main.c ****     //read sensor
 341:Core/Src/main.c ****     osSemaphoreRelease(SensorSemHandle);
 181              		.loc 1 341 5 discriminator 1 view .LVU31
 182 0008 054B     		ldr	r3, .L12+4
 183 000a 1868     		ldr	r0, [r3]
 184 000c FFF7FEFF 		bl	osSemaphoreRelease
 185              	.LVL7:
 342:Core/Src/main.c ****     osDelay(1000);
 186              		.loc 1 342 5 discriminator 1 view .LVU32
 187 0010 4FF47A70 		mov	r0, #1000
 188 0014 FFF7FEFF 		bl	osDelay
 189              	.LVL8:
 337:Core/Src/main.c ****   {
 190              		.loc 1 337 9 discriminator 1 view .LVU33
 191 0018 F3E7     		b	.L10
 192              	.L13:
 193 001a 00BF     		.align	2
 194              	.L12:
 195 001c 00000000 		.word	.LC8
 196 0020 00000000 		.word	.LANCHOR1
 197              		.cfi_endproc
 198              	.LFE79:
 200              		.section	.rodata.Task_Servo.str1.4,"aMS",%progbits,1
 201              		.align	2
 202              	.LC9:
 203 0000 7461736B 		.ascii	"task servo\012\000"
 203      20736572 
 203      766F0A00 
 204              		.align	2
 205              	.LC10:
 206 000c 7461736B 		.ascii	"task servo mode auto\012\000"
 206      20736572 
 206      766F206D 
 206      6F646520 
 206      6175746F 
 207 0022 0000     		.align	2
 208              	.LC11:
 209 0024 7461736B 		.ascii	"task servo mode manual\012\000"
 209      20736572 
 209      766F206D 
 209      6F646520 
 209      6D616E75 
ARM GAS  C:\Users\Admin\AppData\Local\Temp\cc9fDto3.s 			page 11


 210              		.global	__aeabi_i2d
 211              		.global	__aeabi_ddiv
 212              		.global	__aeabi_d2iz
 213              		.section	.text.Task_Servo,"ax",%progbits
 214              		.align	1
 215              		.global	Task_Servo
 216              		.syntax unified
 217              		.thumb
 218              		.thumb_func
 220              	Task_Servo:
 221              	.LFB80:
 343:Core/Src/main.c ****   }
 344:Core/Src/main.c ****   
 345:Core/Src/main.c ****   /* USER CODE END 5 */
 346:Core/Src/main.c **** }
 347:Core/Src/main.c **** 
 348:Core/Src/main.c **** /* USER CODE BEGIN Header_Task_Servo */
 349:Core/Src/main.c **** /**
 350:Core/Src/main.c ****  * @brief Function implementing the Task2 thread.
 351:Core/Src/main.c ****  * @param argument: Not used
 352:Core/Src/main.c ****  * @retval None
 353:Core/Src/main.c ****  */
 354:Core/Src/main.c **** /* USER CODE END Header_Task_Servo */
 355:Core/Src/main.c **** void Task_Servo(void const *argument)
 356:Core/Src/main.c **** {
 222              		.loc 1 356 1 view -0
 223              		.cfi_startproc
 224              		@ Volatile: function does not return.
 225              		@ args = 0, pretend = 0, frame = 0
 226              		@ frame_needed = 0, uses_anonymous_args = 0
 227              	.LVL9:
 228              		.loc 1 356 1 is_stmt 0 view .LVU35
 229 0000 08B5     		push	{r3, lr}
 230              	.LCFI4:
 231              		.cfi_def_cfa_offset 8
 232              		.cfi_offset 3, -8
 233              		.cfi_offset 14, -4
 234 0002 17E0     		b	.L20
 235              	.LVL10:
 236              	.L23:
 357:Core/Src/main.c ****   /* USER CODE BEGIN Task_Servo */
 358:Core/Src/main.c ****   /* Infinite loop */
 359:Core/Src/main.c ****   for (;;)
 360:Core/Src/main.c ****   {
 361:Core/Src/main.c ****     if (osSemaphoreWait(SensorSemHandle, osWaitForever) == osOK|| osSemaphoreWait(DataSemHandle, os
 237              		.loc 1 361 67 discriminator 1 view .LVU36
 238 0004 4FF0FF31 		mov	r1, #-1
 239 0008 234B     		ldr	r3, .L24+8
 240 000a 1868     		ldr	r0, [r3]
 241 000c FFF7FEFF 		bl	osSemaphoreWait
 242              	.LVL11:
 243              		.loc 1 361 64 discriminator 1 view .LVU37
 244 0010 60B9     		cbnz	r0, .L16
 245 0012 17E0     		b	.L15
 246              	.L18:
 362:Core/Src/main.c ****     {
 363:Core/Src/main.c ****       log_data("task servo\n");
ARM GAS  C:\Users\Admin\AppData\Local\Temp\cc9fDto3.s 			page 12


 364:Core/Src/main.c ****       if (Mode == Mode_auto)
 365:Core/Src/main.c ****       {
 366:Core/Src/main.c ****         log_data("task servo mode auto\n");
 367:Core/Src/main.c ****         if (temp > 30)
 368:Core/Src/main.c ****         {
 369:Core/Src/main.c ****           TIM2->CCR1 = 25;
 370:Core/Src/main.c ****           // sprintf(rota, "Rota: %d  ", 0);
 371:Core/Src/main.c ****           // log_data(rota);
 372:Core/Src/main.c ****           // log_data("\n");
 373:Core/Src/main.c ****           // ST7735_WriteString(0, 3 * 10 * 3, rota, Font_11x18, ST7735_GREEN, ST7735_BLACK);
 374:Core/Src/main.c ****         }
 375:Core/Src/main.c ****         //>30C -> close curtain
 376:Core/Src/main.c ****         else
 377:Core/Src/main.c ****         {
 378:Core/Src/main.c ****           TIM2->CCR1 = 125;
 247              		.loc 1 378 11 is_stmt 1 view .LVU38
 248              		.loc 1 378 22 is_stmt 0 view .LVU39
 249 0014 4FF08043 		mov	r3, #1073741824
 250 0018 7D22     		movs	r2, #125
 251 001a 5A63     		str	r2, [r3, #52]
 252              	.L17:
 379:Core/Src/main.c ****           // sprintf(rota, "Rota: %d  ", 180);
 380:Core/Src/main.c ****           // log_data(rota);
 381:Core/Src/main.c ****           // log_data("\n");
 382:Core/Src/main.c ****           // ST7735_WriteString(0, 3 * 10 * 3, rota, Font_11x18, ST7735_GREEN, ST7735_BLACK);
 383:Core/Src/main.c ****         }
 384:Core/Src/main.c ****       }
 385:Core/Src/main.c ****       if (Mode == Mode_manual)
 253              		.loc 1 385 7 is_stmt 1 view .LVU40
 254              		.loc 1 385 16 is_stmt 0 view .LVU41
 255 001c 1F4B     		ldr	r3, .L24+12
 256 001e 1B68     		ldr	r3, [r3]
 257              		.loc 1 385 10 view .LVU42
 258 0020 012B     		cmp	r3, #1
 259 0022 22D0     		beq	.L22
 260              	.L19:
 386:Core/Src/main.c ****       {
 387:Core/Src/main.c ****         log_data("task servo mode manual\n");
 388:Core/Src/main.c ****         TIM2->CCR1 = (int)((PC_rota + 45) / 1.8);
 389:Core/Src/main.c ****       }
 390:Core/Src/main.c ****       osSemaphoreRelease(ServoSemHandle);
 261              		.loc 1 390 7 is_stmt 1 view .LVU43
 262 0024 1E4B     		ldr	r3, .L24+16
 263 0026 1868     		ldr	r0, [r3]
 264 0028 FFF7FEFF 		bl	osSemaphoreRelease
 265              	.LVL12:
 266              	.L16:
 391:Core/Src/main.c ****     }
 392:Core/Src/main.c ****     osDelay(500);
 267              		.loc 1 392 5 view .LVU44
 268 002c 4FF4FA70 		mov	r0, #500
 269 0030 FFF7FEFF 		bl	osDelay
 270              	.LVL13:
 359:Core/Src/main.c ****   {
 271              		.loc 1 359 9 view .LVU45
 272              	.L20:
 359:Core/Src/main.c ****   {
ARM GAS  C:\Users\Admin\AppData\Local\Temp\cc9fDto3.s 			page 13


 273              		.loc 1 359 3 view .LVU46
 361:Core/Src/main.c ****     {
 274              		.loc 1 361 5 view .LVU47
 361:Core/Src/main.c ****     {
 275              		.loc 1 361 9 is_stmt 0 view .LVU48
 276 0034 4FF0FF31 		mov	r1, #-1
 277 0038 1A4B     		ldr	r3, .L24+20
 278 003a 1868     		ldr	r0, [r3]
 279 003c FFF7FEFF 		bl	osSemaphoreWait
 280              	.LVL14:
 361:Core/Src/main.c ****     {
 281              		.loc 1 361 8 view .LVU49
 282 0040 0028     		cmp	r0, #0
 283 0042 DFD1     		bne	.L23
 284              	.L15:
 363:Core/Src/main.c ****       if (Mode == Mode_auto)
 285              		.loc 1 363 7 is_stmt 1 view .LVU50
 286 0044 1848     		ldr	r0, .L24+24
 287 0046 FFF7FEFF 		bl	log_data
 288              	.LVL15:
 364:Core/Src/main.c ****       {
 289              		.loc 1 364 7 view .LVU51
 364:Core/Src/main.c ****       {
 290              		.loc 1 364 16 is_stmt 0 view .LVU52
 291 004a 144B     		ldr	r3, .L24+12
 292 004c 1B68     		ldr	r3, [r3]
 364:Core/Src/main.c ****       {
 293              		.loc 1 364 10 view .LVU53
 294 004e 002B     		cmp	r3, #0
 295 0050 E4D1     		bne	.L17
 366:Core/Src/main.c ****         if (temp > 30)
 296              		.loc 1 366 9 is_stmt 1 view .LVU54
 297 0052 1648     		ldr	r0, .L24+28
 298 0054 FFF7FEFF 		bl	log_data
 299              	.LVL16:
 367:Core/Src/main.c ****         {
 300              		.loc 1 367 9 view .LVU55
 367:Core/Src/main.c ****         {
 301              		.loc 1 367 18 is_stmt 0 view .LVU56
 302 0058 154B     		ldr	r3, .L24+32
 303 005a 1B68     		ldr	r3, [r3]
 367:Core/Src/main.c ****         {
 304              		.loc 1 367 12 view .LVU57
 305 005c 1E2B     		cmp	r3, #30
 306 005e D9DD     		ble	.L18
 369:Core/Src/main.c ****           // sprintf(rota, "Rota: %d  ", 0);
 307              		.loc 1 369 11 is_stmt 1 view .LVU58
 369:Core/Src/main.c ****           // sprintf(rota, "Rota: %d  ", 0);
 308              		.loc 1 369 22 is_stmt 0 view .LVU59
 309 0060 4FF08043 		mov	r3, #1073741824
 310 0064 1922     		movs	r2, #25
 311 0066 5A63     		str	r2, [r3, #52]
 312 0068 D8E7     		b	.L17
 313              	.L22:
 387:Core/Src/main.c ****         TIM2->CCR1 = (int)((PC_rota + 45) / 1.8);
 314              		.loc 1 387 9 is_stmt 1 view .LVU60
 315 006a 1248     		ldr	r0, .L24+36
ARM GAS  C:\Users\Admin\AppData\Local\Temp\cc9fDto3.s 			page 14


 316 006c FFF7FEFF 		bl	log_data
 317              	.LVL17:
 388:Core/Src/main.c ****       }
 318              		.loc 1 388 9 view .LVU61
 388:Core/Src/main.c ****       }
 319              		.loc 1 388 37 is_stmt 0 view .LVU62
 320 0070 114B     		ldr	r3, .L24+40
 321 0072 1868     		ldr	r0, [r3]
 388:Core/Src/main.c ****       }
 322              		.loc 1 388 43 view .LVU63
 323 0074 2D30     		adds	r0, r0, #45
 324 0076 FFF7FEFF 		bl	__aeabi_i2d
 325              	.LVL18:
 326 007a 05A3     		adr	r3, .L24
 327 007c D3E90023 		ldrd	r2, [r3]
 328 0080 FFF7FEFF 		bl	__aeabi_ddiv
 329              	.LVL19:
 388:Core/Src/main.c ****       }
 330              		.loc 1 388 22 view .LVU64
 331 0084 FFF7FEFF 		bl	__aeabi_d2iz
 332              	.LVL20:
 388:Core/Src/main.c ****       }
 333              		.loc 1 388 20 view .LVU65
 334 0088 4FF08043 		mov	r3, #1073741824
 335 008c 5863     		str	r0, [r3, #52]
 336 008e C9E7     		b	.L19
 337              	.L25:
 338              		.align	3
 339              	.L24:
 340 0090 CDCCCCCC 		.word	-858993459
 341 0094 CCCCFC3F 		.word	1073532108
 342 0098 00000000 		.word	.LANCHOR2
 343 009c 00000000 		.word	.LANCHOR3
 344 00a0 00000000 		.word	.LANCHOR6
 345 00a4 00000000 		.word	.LANCHOR1
 346 00a8 00000000 		.word	.LC9
 347 00ac 0C000000 		.word	.LC10
 348 00b0 00000000 		.word	.LANCHOR4
 349 00b4 24000000 		.word	.LC11
 350 00b8 00000000 		.word	.LANCHOR5
 351              		.cfi_endproc
 352              	.LFE80:
 354              		.section	.rodata.Task_Display.str1.4,"aMS",%progbits,1
 355              		.align	2
 356              	.LC12:
 357 0000 5461736B 		.ascii	"Task Display\012\000"
 357      20446973 
 357      706C6179 
 357      0A00
 358 000e 0000     		.align	2
 359              	.LC13:
 360 0010 54656D70 		.ascii	"Temp: %d C\000"
 360      3A202564 
 360      204300
 361 001b 00       		.align	2
 362              	.LC14:
 363 001c 48756D69 		.ascii	"Humi: %d \000"
ARM GAS  C:\Users\Admin\AppData\Local\Temp\cc9fDto3.s 			page 15


 363      3A202564 
 363      2000
 364              		.global	__aeabi_ui2d
 365              		.global	__aeabi_dmul
 366              		.global	__aeabi_dsub
 367 0026 0000     		.align	2
 368              	.LC15:
 369 0028 526F7461 		.ascii	"Rota: %d  \000"
 369      3A202564 
 369      202000
 370 0033 00       		.align	2
 371              	.LC16:
 372 0034 0A00     		.ascii	"\012\000"
 373              		.section	.text.Task_Display,"ax",%progbits
 374              		.align	1
 375              		.global	Task_Display
 376              		.syntax unified
 377              		.thumb
 378              		.thumb_func
 380              	Task_Display:
 381              	.LFB81:
 393:Core/Src/main.c ****   }
 394:Core/Src/main.c ****   /* USER CODE END Task_Servo */
 395:Core/Src/main.c **** }
 396:Core/Src/main.c **** 
 397:Core/Src/main.c **** /* USER CODE BEGIN Header_Task_Display */
 398:Core/Src/main.c **** /**
 399:Core/Src/main.c ****  * @brief Function implementing the Task3 thread.
 400:Core/Src/main.c ****  * @param argument: Not used
 401:Core/Src/main.c ****  * @retval None
 402:Core/Src/main.c ****  */
 403:Core/Src/main.c **** /* USER CODE END Header_Task_Display */
 404:Core/Src/main.c **** void Task_Display(void const *argument)
 405:Core/Src/main.c **** {
 382              		.loc 1 405 1 is_stmt 1 view -0
 383              		.cfi_startproc
 384              		@ Volatile: function does not return.
 385              		@ args = 0, pretend = 0, frame = 0
 386              		@ frame_needed = 0, uses_anonymous_args = 0
 387              	.LVL21:
 388              		.loc 1 405 1 is_stmt 0 view .LVU67
 389 0000 08B5     		push	{r3, lr}
 390              	.LCFI5:
 391              		.cfi_def_cfa_offset 8
 392              		.cfi_offset 3, -8
 393              		.cfi_offset 14, -4
 394              	.LVL22:
 395              	.L27:
 406:Core/Src/main.c ****   /* USER CODE BEGIN Task_Display */
 407:Core/Src/main.c ****   /* Infinite loop */
 408:Core/Src/main.c ****   for (;;)
 396              		.loc 1 408 3 is_stmt 1 discriminator 1 view .LVU68
 409:Core/Src/main.c ****   {
 410:Core/Src/main.c ****     osSemaphoreWait(ServoSemHandle, osWaitForever);
 397              		.loc 1 410 5 discriminator 1 view .LVU69
 398 0002 4FF0FF31 		mov	r1, #-1
 399 0006 204B     		ldr	r3, .L29+8
ARM GAS  C:\Users\Admin\AppData\Local\Temp\cc9fDto3.s 			page 16


 400 0008 1868     		ldr	r0, [r3]
 401 000a FFF7FEFF 		bl	osSemaphoreWait
 402              	.LVL23:
 411:Core/Src/main.c ****     log_data("Task Display\n");
 403              		.loc 1 411 5 discriminator 1 view .LVU70
 404 000e 1F48     		ldr	r0, .L29+12
 405 0010 FFF7FEFF 		bl	log_data
 406              	.LVL24:
 412:Core/Src/main.c ****     sprintf(buf_temp, "Temp: %d C", temp);
 407              		.loc 1 412 5 discriminator 1 view .LVU71
 408 0014 1E4C     		ldr	r4, .L29+16
 409 0016 1F4B     		ldr	r3, .L29+20
 410 0018 1A68     		ldr	r2, [r3]
 411 001a 1F49     		ldr	r1, .L29+24
 412 001c 2046     		mov	r0, r4
 413 001e FFF7FEFF 		bl	sprintf
 414              	.LVL25:
 413:Core/Src/main.c ****     sprintf(buf_humi, "Humi: %d ", humi);
 415              		.loc 1 413 5 discriminator 1 view .LVU72
 416 0022 1E4D     		ldr	r5, .L29+28
 417 0024 1E4B     		ldr	r3, .L29+32
 418 0026 1A68     		ldr	r2, [r3]
 419 0028 1E49     		ldr	r1, .L29+36
 420 002a 2846     		mov	r0, r5
 421 002c FFF7FEFF 		bl	sprintf
 422              	.LVL26:
 414:Core/Src/main.c ****     sprintf(rota, "Rota: %d  ", (int)(1.8*(TIM2->CCR1) - 45));
 423              		.loc 1 414 5 discriminator 1 view .LVU73
 424              		.loc 1 414 48 is_stmt 0 discriminator 1 view .LVU74
 425 0030 4FF08043 		mov	r3, #1073741824
 426 0034 586B     		ldr	r0, [r3, #52]
 427              		.loc 1 414 42 discriminator 1 view .LVU75
 428 0036 FFF7FEFF 		bl	__aeabi_ui2d
 429              	.LVL27:
 430 003a 11A3     		adr	r3, .L29
 431 003c D3E90023 		ldrd	r2, [r3]
 432 0040 FFF7FEFF 		bl	__aeabi_dmul
 433              	.LVL28:
 434              		.loc 1 414 56 discriminator 1 view .LVU76
 435 0044 0022     		movs	r2, #0
 436 0046 184B     		ldr	r3, .L29+40
 437 0048 FFF7FEFF 		bl	__aeabi_dsub
 438              	.LVL29:
 439              		.loc 1 414 5 discriminator 1 view .LVU77
 440 004c FFF7FEFF 		bl	__aeabi_d2iz
 441              	.LVL30:
 442 0050 0246     		mov	r2, r0
 443 0052 1649     		ldr	r1, .L29+44
 444 0054 1648     		ldr	r0, .L29+48
 445 0056 FFF7FEFF 		bl	sprintf
 446              	.LVL31:
 415:Core/Src/main.c ****     log_data(buf_temp);
 447              		.loc 1 415 5 is_stmt 1 discriminator 1 view .LVU78
 448 005a 2046     		mov	r0, r4
 449 005c FFF7FEFF 		bl	log_data
 450              	.LVL32:
 416:Core/Src/main.c ****     log_data("\n");
ARM GAS  C:\Users\Admin\AppData\Local\Temp\cc9fDto3.s 			page 17


 451              		.loc 1 416 5 discriminator 1 view .LVU79
 452 0060 144C     		ldr	r4, .L29+52
 453 0062 2046     		mov	r0, r4
 454 0064 FFF7FEFF 		bl	log_data
 455              	.LVL33:
 417:Core/Src/main.c ****     log_data(buf_humi);
 456              		.loc 1 417 5 discriminator 1 view .LVU80
 457 0068 2846     		mov	r0, r5
 458 006a FFF7FEFF 		bl	log_data
 459              	.LVL34:
 418:Core/Src/main.c ****     log_data("\n");
 460              		.loc 1 418 5 discriminator 1 view .LVU81
 461 006e 2046     		mov	r0, r4
 462 0070 FFF7FEFF 		bl	log_data
 463              	.LVL35:
 419:Core/Src/main.c ****     // ST7735_WriteString(0, 30, buf_temp, Font_11x18, ST7735_RED, ST7735_BLACK);
 420:Core/Src/main.c ****     // ST7735_WriteString(0, 3 * 10 * 2, strcat(buf_humi, "%"), Font_11x18, ST7735_RED, ST7735_BLAC
 421:Core/Src/main.c ****     //ST7735_WriteString(0, 3 * 10 * 3, rota, Font_11x18, ST7735_GREEN, ST7735_BLACK);
 422:Core/Src/main.c ****     osDelay(500);
 464              		.loc 1 422 5 discriminator 1 view .LVU82
 465 0074 4FF4FA70 		mov	r0, #500
 466 0078 FFF7FEFF 		bl	osDelay
 467              	.LVL36:
 408:Core/Src/main.c ****   {
 468              		.loc 1 408 9 discriminator 1 view .LVU83
 469 007c C1E7     		b	.L27
 470              	.L30:
 471 007e 00BF     		.align	3
 472              	.L29:
 473 0080 CDCCCCCC 		.word	-858993459
 474 0084 CCCCFC3F 		.word	1073532108
 475 0088 00000000 		.word	.LANCHOR6
 476 008c 00000000 		.word	.LC12
 477 0090 00000000 		.word	.LANCHOR7
 478 0094 00000000 		.word	.LANCHOR4
 479 0098 10000000 		.word	.LC13
 480 009c 00000000 		.word	.LANCHOR9
 481 00a0 00000000 		.word	.LANCHOR8
 482 00a4 1C000000 		.word	.LC14
 483 00a8 00804640 		.word	1078362112
 484 00ac 28000000 		.word	.LC15
 485 00b0 00000000 		.word	.LANCHOR10
 486 00b4 34000000 		.word	.LC16
 487              		.cfi_endproc
 488              	.LFE81:
 490              		.section	.rodata.Task_Data.str1.4,"aMS",%progbits,1
 491              		.align	2
 492              	.LC17:
 493 0000 7461736B 		.ascii	"task uart\012\000"
 493      20756172 
 493      740A00
 494 000b 00       		.align	2
 495              	.LC18:
 496 000c 526F7461 		.ascii	"Rota\000"
 496      00
 497 0011 000000   		.align	2
 498              	.LC19:
ARM GAS  C:\Users\Admin\AppData\Local\Temp\cc9fDto3.s 			page 18


 499 0014 63686563 		.ascii	"check data rota\012\000"
 499      6B206461 
 499      74612072 
 499      6F74610A 
 499      00
 500 0025 000000   		.align	2
 501              	.LC20:
 502 0028 252A5B5E 		.ascii	"%*[^0-9]%d\000"
 502      302D395D 
 502      256400
 503 0033 00       		.align	2
 504              	.LC21:
 505 0034 526F7461 		.ascii	"Rota: %d  \012\000"
 505      3A202564 
 505      20200A00 
 506              		.align	2
 507              	.LC22:
 508 0040 0A504320 		.ascii	"\012PC control \000"
 508      636F6E74 
 508      726F6C20 
 508      00
 509 004d 000000   		.align	2
 510              	.LC23:
 511 0050 54687265 		.ascii	"Threshold\000"
 511      73686F6C 
 511      6400
 512 005a 0000     		.align	2
 513              	.LC24:
 514 005c 63686563 		.ascii	"check data thresh\012\000"
 514      6B206461 
 514      74612074 
 514      68726573 
 514      680A00
 515 006f 00       		.align	2
 516              	.LC26:
 517 0070 25732573 		.ascii	"%s%s\000"
 517      00
 518              		.global	__aeabi_d2f
 519 0075 000000   		.align	2
 520              	.LC27:
 521 0078 0A504320 		.ascii	"\012PC set Threshold: \000"
 521      73657420 
 521      54687265 
 521      73686F6C 
 521      643A2000 
 522              		.align	2
 523              	.LC25:
 524 008c 54687265 		.ascii	"Thres: \000"
 524      733A2000 
 525              		.section	.text.Task_Data,"ax",%progbits
 526              		.align	1
 527              		.global	Task_Data
 528              		.syntax unified
 529              		.thumb
 530              		.thumb_func
 532              	Task_Data:
 533              	.LFB82:
ARM GAS  C:\Users\Admin\AppData\Local\Temp\cc9fDto3.s 			page 19


 423:Core/Src/main.c ****   }
 424:Core/Src/main.c ****   /* USER CODE END Task_Display */
 425:Core/Src/main.c **** }
 426:Core/Src/main.c **** 
 427:Core/Src/main.c **** /* USER CODE BEGIN Header_Task_Data */
 428:Core/Src/main.c **** /**
 429:Core/Src/main.c ****  * @brief Function implementing the Task4 thread.
 430:Core/Src/main.c ****  * @param argument: Not used
 431:Core/Src/main.c ****  * @retval None
 432:Core/Src/main.c ****  */
 433:Core/Src/main.c **** /* USER CODE END Header_Task_Data */
 434:Core/Src/main.c **** void Task_Data(void const *argument)
 435:Core/Src/main.c **** {
 534              		.loc 1 435 1 view -0
 535              		.cfi_startproc
 536              		@ Volatile: function does not return.
 537              		@ args = 0, pretend = 0, frame = 8
 538              		@ frame_needed = 0, uses_anonymous_args = 0
 539              	.LVL37:
 540              		.loc 1 435 1 is_stmt 0 view .LVU85
 541 0000 00B5     		push	{lr}
 542              	.LCFI6:
 543              		.cfi_def_cfa_offset 4
 544              		.cfi_offset 14, -4
 545 0002 83B0     		sub	sp, sp, #12
 546              	.LCFI7:
 547              		.cfi_def_cfa_offset 16
 548 0004 42E0     		b	.L34
 549              	.LVL38:
 550              	.L36:
 436:Core/Src/main.c ****   /* USER CODE BEGIN Task_Data */
 437:Core/Src/main.c ****   /* Infinite loop */
 438:Core/Src/main.c ****   for (;;)
 439:Core/Src/main.c ****   {
 440:Core/Src/main.c ****     osSemaphoreWait(IRQSemHandle, osWaitForever);
 441:Core/Src/main.c ****     log_data("task uart\n");
 442:Core/Src/main.c ****     if (strncmp(buffer_data, "Rota", 4) == 0)
 443:Core/Src/main.c ****     {
 444:Core/Src/main.c ****       log_data("check data rota\n");
 551              		.loc 1 444 7 is_stmt 1 view .LVU86
 552 0006 2D48     		ldr	r0, .L38
 553 0008 FFF7FEFF 		bl	log_data
 554              	.LVL39:
 445:Core/Src/main.c ****       // Parse string
 446:Core/Src/main.c ****       sscanf(buffer_data, "%*[^0-9]%d", &PC_rota);
 555              		.loc 1 446 7 view .LVU87
 556 000c 2C4D     		ldr	r5, .L38+4
 557 000e 2A46     		mov	r2, r5
 558 0010 2C49     		ldr	r1, .L38+8
 559 0012 2D48     		ldr	r0, .L38+12
 560 0014 FFF7FEFF 		bl	sscanf
 561              	.LVL40:
 447:Core/Src/main.c ****       // // control Servo
 448:Core/Src/main.c ****       sprintf(rota, "Rota: %d  \n", PC_rota);
 562              		.loc 1 448 7 view .LVU88
 563 0018 2C4C     		ldr	r4, .L38+16
 564 001a 2A68     		ldr	r2, [r5]
ARM GAS  C:\Users\Admin\AppData\Local\Temp\cc9fDto3.s 			page 20


 565 001c 2C49     		ldr	r1, .L38+20
 566 001e 2046     		mov	r0, r4
 567 0020 FFF7FEFF 		bl	sprintf
 568              	.LVL41:
 449:Core/Src/main.c ****       log_data("\nPC control ");
 569              		.loc 1 449 7 view .LVU89
 570 0024 2B48     		ldr	r0, .L38+24
 571 0026 FFF7FEFF 		bl	log_data
 572              	.LVL42:
 450:Core/Src/main.c ****       log_data(rota);
 573              		.loc 1 450 7 view .LVU90
 574 002a 2046     		mov	r0, r4
 575 002c FFF7FEFF 		bl	log_data
 576              	.LVL43:
 577 0030 3CE0     		b	.L32
 578              	.L37:
 579              	.LBB7:
 451:Core/Src/main.c ****       // ST7735_WriteString(0, 3 * 10 * 3, rota, Font_11x18, ST7735_GREEN, ST7735_BLACK);
 452:Core/Src/main.c ****     }
 453:Core/Src/main.c ****     if (strncmp(buffer_data, "Threshold", strlen("Threshold")) == 0)
 454:Core/Src/main.c ****     {
 455:Core/Src/main.c ****       log_data("check data thresh\n");
 580              		.loc 1 455 7 view .LVU91
 581 0032 2948     		ldr	r0, .L38+28
 582 0034 FFF7FEFF 		bl	log_data
 583              	.LVL44:
 456:Core/Src/main.c ****       char str_buf[] = "Thres: ";
 584              		.loc 1 456 7 view .LVU92
 585              		.loc 1 456 12 is_stmt 0 view .LVU93
 586 0038 284B     		ldr	r3, .L38+32
 587 003a 6D46     		mov	r5, sp
 588 003c 93E80300 		ldm	r3, {r0, r1}
 589 0040 85E80300 		stm	r5, {r0, r1}
 457:Core/Src/main.c ****       // Parse string
 458:Core/Src/main.c ****       sscanf(buffer_data, "%s%s", label_thres, str_thres);
 590              		.loc 1 458 7 is_stmt 1 view .LVU94
 591 0044 264C     		ldr	r4, .L38+36
 592 0046 2346     		mov	r3, r4
 593 0048 264A     		ldr	r2, .L38+40
 594 004a 2749     		ldr	r1, .L38+44
 595 004c 1E48     		ldr	r0, .L38+12
 596 004e FFF7FEFF 		bl	sscanf
 597              	.LVL45:
 459:Core/Src/main.c ****       // control Servo
 460:Core/Src/main.c ****       PC_threshold = atof(str_thres);
 598              		.loc 1 460 7 view .LVU95
 599              		.loc 1 460 22 is_stmt 0 view .LVU96
 600 0052 2046     		mov	r0, r4
 601 0054 FFF7FEFF 		bl	atof
 602              	.LVL46:
 603 0058 FFF7FEFF 		bl	__aeabi_d2f
 604              	.LVL47:
 605              		.loc 1 460 20 view .LVU97
 606 005c 234B     		ldr	r3, .L38+48
 607 005e 1860     		str	r0, [r3]	@ float
 461:Core/Src/main.c ****       strcat(str_buf, str_thres);
 608              		.loc 1 461 7 is_stmt 1 view .LVU98
ARM GAS  C:\Users\Admin\AppData\Local\Temp\cc9fDto3.s 			page 21


 609 0060 2146     		mov	r1, r4
 610 0062 2846     		mov	r0, r5
 611 0064 FFF7FEFF 		bl	strcat
 612              	.LVL48:
 462:Core/Src/main.c ****       log_data("\nPC set Threshold: ");
 613              		.loc 1 462 7 view .LVU99
 614 0068 2148     		ldr	r0, .L38+52
 615 006a FFF7FEFF 		bl	log_data
 616              	.LVL49:
 463:Core/Src/main.c ****       log_data(str_thres);
 617              		.loc 1 463 7 view .LVU100
 618 006e 2046     		mov	r0, r4
 619 0070 FFF7FEFF 		bl	log_data
 620              	.LVL50:
 621              	.L33:
 622              	.LBE7:
 464:Core/Src/main.c ****       // ST7735_WriteString(0, 3 * 10 * 4, str_buf, Font_11x18, ST7735_GREEN, ST7735_BLACK);
 465:Core/Src/main.c ****     }
 466:Core/Src/main.c ****     memset(buffer_data, '\0', sizeof(buffer_data));
 623              		.loc 1 466 5 view .LVU101
 624 0074 3222     		movs	r2, #50
 625 0076 0021     		movs	r1, #0
 626 0078 1348     		ldr	r0, .L38+12
 627 007a FFF7FEFF 		bl	memset
 628              	.LVL51:
 467:Core/Src/main.c ****     osSemaphoreRelease(DataSemHandle);
 629              		.loc 1 467 5 view .LVU102
 630 007e 1D4B     		ldr	r3, .L38+56
 631 0080 1868     		ldr	r0, [r3]
 632 0082 FFF7FEFF 		bl	osSemaphoreRelease
 633              	.LVL52:
 468:Core/Src/main.c ****     osDelay(1);
 634              		.loc 1 468 5 view .LVU103
 635 0086 0120     		movs	r0, #1
 636 0088 FFF7FEFF 		bl	osDelay
 637              	.LVL53:
 438:Core/Src/main.c ****   {
 638              		.loc 1 438 9 view .LVU104
 639              	.L34:
 438:Core/Src/main.c ****   {
 640              		.loc 1 438 3 view .LVU105
 440:Core/Src/main.c ****     log_data("task uart\n");
 641              		.loc 1 440 5 view .LVU106
 642 008c 4FF0FF31 		mov	r1, #-1
 643 0090 194B     		ldr	r3, .L38+60
 644 0092 1868     		ldr	r0, [r3]
 645 0094 FFF7FEFF 		bl	osSemaphoreWait
 646              	.LVL54:
 441:Core/Src/main.c ****     if (strncmp(buffer_data, "Rota", 4) == 0)
 647              		.loc 1 441 5 view .LVU107
 648 0098 1848     		ldr	r0, .L38+64
 649 009a FFF7FEFF 		bl	log_data
 650              	.LVL55:
 442:Core/Src/main.c ****     {
 651              		.loc 1 442 5 view .LVU108
 442:Core/Src/main.c ****     {
 652              		.loc 1 442 9 is_stmt 0 view .LVU109
ARM GAS  C:\Users\Admin\AppData\Local\Temp\cc9fDto3.s 			page 22


 653 009e 0422     		movs	r2, #4
 654 00a0 1749     		ldr	r1, .L38+68
 655 00a2 0948     		ldr	r0, .L38+12
 656 00a4 FFF7FEFF 		bl	strncmp
 657              	.LVL56:
 442:Core/Src/main.c ****     {
 658              		.loc 1 442 8 view .LVU110
 659 00a8 0028     		cmp	r0, #0
 660 00aa ACD0     		beq	.L36
 661              	.L32:
 453:Core/Src/main.c ****     {
 662              		.loc 1 453 5 is_stmt 1 view .LVU111
 453:Core/Src/main.c ****     {
 663              		.loc 1 453 9 is_stmt 0 view .LVU112
 664 00ac 0922     		movs	r2, #9
 665 00ae 1549     		ldr	r1, .L38+72
 666 00b0 0548     		ldr	r0, .L38+12
 667 00b2 FFF7FEFF 		bl	strncmp
 668              	.LVL57:
 453:Core/Src/main.c ****     {
 669              		.loc 1 453 8 view .LVU113
 670 00b6 0028     		cmp	r0, #0
 671 00b8 BBD0     		beq	.L37
 672 00ba DBE7     		b	.L33
 673              	.L39:
 674              		.align	2
 675              	.L38:
 676 00bc 14000000 		.word	.LC19
 677 00c0 00000000 		.word	.LANCHOR5
 678 00c4 28000000 		.word	.LC20
 679 00c8 00000000 		.word	.LANCHOR12
 680 00cc 00000000 		.word	.LANCHOR10
 681 00d0 34000000 		.word	.LC21
 682 00d4 40000000 		.word	.LC22
 683 00d8 5C000000 		.word	.LC24
 684 00dc 8C000000 		.word	.LC25
 685 00e0 00000000 		.word	.LANCHOR13
 686 00e4 00000000 		.word	.LANCHOR14
 687 00e8 70000000 		.word	.LC26
 688 00ec 00000000 		.word	.LANCHOR15
 689 00f0 78000000 		.word	.LC27
 690 00f4 00000000 		.word	.LANCHOR2
 691 00f8 00000000 		.word	.LANCHOR11
 692 00fc 00000000 		.word	.LC17
 693 0100 0C000000 		.word	.LC18
 694 0104 50000000 		.word	.LC23
 695              		.cfi_endproc
 696              	.LFE82:
 698              		.section	.rodata.HAL_UART_RxCpltCallback.str1.4,"aMS",%progbits,1
 699              		.align	2
 700              	.LC28:
 701 0000 6D616E75 		.ascii	"manual\000"
 701      616C00
 702 0007 00       		.align	2
 703              	.LC29:
 704 0008 6175746F 		.ascii	"auto\000"
 704      00
ARM GAS  C:\Users\Admin\AppData\Local\Temp\cc9fDto3.s 			page 23


 705              		.section	.text.HAL_UART_RxCpltCallback,"ax",%progbits
 706              		.align	1
 707              		.global	HAL_UART_RxCpltCallback
 708              		.syntax unified
 709              		.thumb
 710              		.thumb_func
 712              	HAL_UART_RxCpltCallback:
 713              	.LVL58:
 714              	.LFB74:
 108:Core/Src/main.c ****   if (huart == &huart3)
 715              		.loc 1 108 1 is_stmt 1 view -0
 716              		.cfi_startproc
 717              		@ args = 0, pretend = 0, frame = 0
 718              		@ frame_needed = 0, uses_anonymous_args = 0
 108:Core/Src/main.c ****   if (huart == &huart3)
 719              		.loc 1 108 1 is_stmt 0 view .LVU115
 720 0000 08B5     		push	{r3, lr}
 721              	.LCFI8:
 722              		.cfi_def_cfa_offset 8
 723              		.cfi_offset 3, -8
 724              		.cfi_offset 14, -4
 109:Core/Src/main.c ****   {
 725              		.loc 1 109 3 is_stmt 1 view .LVU116
 109:Core/Src/main.c ****   {
 726              		.loc 1 109 6 is_stmt 0 view .LVU117
 727 0002 174B     		ldr	r3, .L49
 728 0004 8342     		cmp	r3, r0
 729 0006 00D0     		beq	.L47
 730              	.LVL59:
 731              	.L40:
 133:Core/Src/main.c **** /* USER CODE END 0 */
 732              		.loc 1 133 1 view .LVU118
 733 0008 08BD     		pop	{r3, pc}
 734              	.LVL60:
 735              	.L47:
 111:Core/Src/main.c ****     {
 736              		.loc 1 111 5 is_stmt 1 view .LVU119
 111:Core/Src/main.c ****     {
 737              		.loc 1 111 17 is_stmt 0 view .LVU120
 738 000a 164B     		ldr	r3, .L49+4
 739 000c 1B78     		ldrb	r3, [r3]	@ zero_extendqisi2
 111:Core/Src/main.c ****     {
 740              		.loc 1 111 8 view .LVU121
 741 000e 0D2B     		cmp	r3, #13
 742 0010 0CD0     		beq	.L48
 127:Core/Src/main.c ****       Rx_index++;
 743              		.loc 1 127 7 is_stmt 1 view .LVU122
 127:Core/Src/main.c ****       Rx_index++;
 744              		.loc 1 127 18 is_stmt 0 view .LVU123
 745 0012 154A     		ldr	r2, .L49+8
 746 0014 1168     		ldr	r1, [r2]
 127:Core/Src/main.c ****       Rx_index++;
 747              		.loc 1 127 29 view .LVU124
 748 0016 1548     		ldr	r0, .L49+12
 749              	.LVL61:
 127:Core/Src/main.c ****       Rx_index++;
 750              		.loc 1 127 29 view .LVU125
ARM GAS  C:\Users\Admin\AppData\Local\Temp\cc9fDto3.s 			page 24


 751 0018 4354     		strb	r3, [r0, r1]
 128:Core/Src/main.c ****       // log_data((char*)Rx_data);
 752              		.loc 1 128 7 is_stmt 1 view .LVU126
 128:Core/Src/main.c ****       // log_data((char*)Rx_data);
 753              		.loc 1 128 15 is_stmt 0 view .LVU127
 754 001a 1368     		ldr	r3, [r2]
 755 001c 0133     		adds	r3, r3, #1
 756 001e 1360     		str	r3, [r2]
 757              	.L45:
 131:Core/Src/main.c ****   }
 758              		.loc 1 131 5 is_stmt 1 view .LVU128
 759 0020 0122     		movs	r2, #1
 760 0022 1049     		ldr	r1, .L49+4
 761 0024 0E48     		ldr	r0, .L49
 762 0026 FFF7FEFF 		bl	HAL_UART_Receive_IT
 763              	.LVL62:
 133:Core/Src/main.c **** /* USER CODE END 0 */
 764              		.loc 1 133 1 is_stmt 0 view .LVU129
 765 002a EDE7     		b	.L40
 766              	.LVL63:
 767              	.L48:
 113:Core/Src/main.c ****       Rx_index = 0;
 768              		.loc 1 113 7 is_stmt 1 view .LVU130
 113:Core/Src/main.c ****       Rx_index = 0;
 769              		.loc 1 113 18 is_stmt 0 view .LVU131
 770 002c 0E4B     		ldr	r3, .L49+8
 771 002e 1968     		ldr	r1, [r3]
 113:Core/Src/main.c ****       Rx_index = 0;
 772              		.loc 1 113 29 view .LVU132
 773 0030 0E48     		ldr	r0, .L49+12
 774              	.LVL64:
 113:Core/Src/main.c ****       Rx_index = 0;
 775              		.loc 1 113 29 view .LVU133
 776 0032 0022     		movs	r2, #0
 777 0034 4254     		strb	r2, [r0, r1]
 114:Core/Src/main.c ****       if (strcmp(buffer_data, "manual") == 0)
 778              		.loc 1 114 7 is_stmt 1 view .LVU134
 114:Core/Src/main.c ****       if (strcmp(buffer_data, "manual") == 0)
 779              		.loc 1 114 16 is_stmt 0 view .LVU135
 780 0036 1A60     		str	r2, [r3]
 115:Core/Src/main.c ****       {
 781              		.loc 1 115 7 is_stmt 1 view .LVU136
 115:Core/Src/main.c ****       {
 782              		.loc 1 115 11 is_stmt 0 view .LVU137
 783 0038 0D49     		ldr	r1, .L49+16
 784 003a FFF7FEFF 		bl	strcmp
 785              	.LVL65:
 115:Core/Src/main.c ****       {
 786              		.loc 1 115 10 view .LVU138
 787 003e 10B9     		cbnz	r0, .L43
 117:Core/Src/main.c ****       }
 788              		.loc 1 117 9 is_stmt 1 view .LVU139
 117:Core/Src/main.c ****       }
 789              		.loc 1 117 14 is_stmt 0 view .LVU140
 790 0040 0C4B     		ldr	r3, .L49+20
 791 0042 0122     		movs	r2, #1
 792 0044 1A60     		str	r2, [r3]
ARM GAS  C:\Users\Admin\AppData\Local\Temp\cc9fDto3.s 			page 25


 793              	.L43:
 119:Core/Src/main.c ****       {
 794              		.loc 1 119 7 is_stmt 1 view .LVU141
 119:Core/Src/main.c ****       {
 795              		.loc 1 119 11 is_stmt 0 view .LVU142
 796 0046 0C49     		ldr	r1, .L49+24
 797 0048 0848     		ldr	r0, .L49+12
 798 004a FFF7FEFF 		bl	strcmp
 799              	.LVL66:
 119:Core/Src/main.c ****       {
 800              		.loc 1 119 10 view .LVU143
 801 004e 10B9     		cbnz	r0, .L44
 121:Core/Src/main.c ****       }
 802              		.loc 1 121 9 is_stmt 1 view .LVU144
 121:Core/Src/main.c ****       }
 803              		.loc 1 121 14 is_stmt 0 view .LVU145
 804 0050 084B     		ldr	r3, .L49+20
 805 0052 0022     		movs	r2, #0
 806 0054 1A60     		str	r2, [r3]
 807              	.L44:
 123:Core/Src/main.c ****     }
 808              		.loc 1 123 7 is_stmt 1 view .LVU146
 809 0056 094B     		ldr	r3, .L49+28
 810 0058 1868     		ldr	r0, [r3]
 811 005a FFF7FEFF 		bl	osSemaphoreRelease
 812              	.LVL67:
 813 005e DFE7     		b	.L45
 814              	.L50:
 815              		.align	2
 816              	.L49:
 817 0060 00000000 		.word	.LANCHOR0
 818 0064 00000000 		.word	.LANCHOR16
 819 0068 00000000 		.word	.LANCHOR17
 820 006c 00000000 		.word	.LANCHOR12
 821 0070 00000000 		.word	.LC28
 822 0074 00000000 		.word	.LANCHOR3
 823 0078 08000000 		.word	.LC29
 824 007c 00000000 		.word	.LANCHOR11
 825              		.cfi_endproc
 826              	.LFE74:
 828              		.section	.text.HAL_TIM_PeriodElapsedCallback,"ax",%progbits
 829              		.align	1
 830              		.global	HAL_TIM_PeriodElapsedCallback
 831              		.syntax unified
 832              		.thumb
 833              		.thumb_func
 835              	HAL_TIM_PeriodElapsedCallback:
 836              	.LVL68:
 837              	.LFB83:
 469:Core/Src/main.c ****   }
 470:Core/Src/main.c ****   /* USER CODE END Task_Data */
 471:Core/Src/main.c **** }
 472:Core/Src/main.c **** 
 473:Core/Src/main.c **** /**
 474:Core/Src/main.c ****  * @brief  Period elapsed callback in non blocking mode
 475:Core/Src/main.c ****  * @note   This function is called  when TIM1 interrupt took place, inside
 476:Core/Src/main.c ****  * HAL_TIM_IRQHandler(). It makes a direct call to HAL_IncTick() to increment
ARM GAS  C:\Users\Admin\AppData\Local\Temp\cc9fDto3.s 			page 26


 477:Core/Src/main.c ****  * a global variable "uwTick" used as application time base.
 478:Core/Src/main.c ****  * @param  htim : TIM handle
 479:Core/Src/main.c ****  * @retval None
 480:Core/Src/main.c ****  */
 481:Core/Src/main.c **** void HAL_TIM_PeriodElapsedCallback(TIM_HandleTypeDef *htim)
 482:Core/Src/main.c **** {
 838              		.loc 1 482 1 view -0
 839              		.cfi_startproc
 840              		@ args = 0, pretend = 0, frame = 0
 841              		@ frame_needed = 0, uses_anonymous_args = 0
 842              		.loc 1 482 1 is_stmt 0 view .LVU148
 843 0000 08B5     		push	{r3, lr}
 844              	.LCFI9:
 845              		.cfi_def_cfa_offset 8
 846              		.cfi_offset 3, -8
 847              		.cfi_offset 14, -4
 483:Core/Src/main.c ****   /* USER CODE BEGIN Callback 0 */
 484:Core/Src/main.c **** 
 485:Core/Src/main.c ****   /* USER CODE END Callback 0 */
 486:Core/Src/main.c ****   if (htim->Instance == TIM1)
 848              		.loc 1 486 3 is_stmt 1 view .LVU149
 849              		.loc 1 486 11 is_stmt 0 view .LVU150
 850 0002 0268     		ldr	r2, [r0]
 851              		.loc 1 486 6 view .LVU151
 852 0004 034B     		ldr	r3, .L55
 853 0006 9A42     		cmp	r2, r3
 854 0008 00D0     		beq	.L54
 855              	.LVL69:
 856              	.L51:
 487:Core/Src/main.c ****   {
 488:Core/Src/main.c ****     HAL_IncTick();
 489:Core/Src/main.c ****   }
 490:Core/Src/main.c ****   /* USER CODE BEGIN Callback 1 */
 491:Core/Src/main.c **** 
 492:Core/Src/main.c ****   /* USER CODE END Callback 1 */
 493:Core/Src/main.c **** }
 857              		.loc 1 493 1 view .LVU152
 858 000a 08BD     		pop	{r3, pc}
 859              	.LVL70:
 860              	.L54:
 488:Core/Src/main.c ****   }
 861              		.loc 1 488 5 is_stmt 1 view .LVU153
 862 000c FFF7FEFF 		bl	HAL_IncTick
 863              	.LVL71:
 864              		.loc 1 493 1 is_stmt 0 view .LVU154
 865 0010 FBE7     		b	.L51
 866              	.L56:
 867 0012 00BF     		.align	2
 868              	.L55:
 869 0014 002C0140 		.word	1073818624
 870              		.cfi_endproc
 871              	.LFE83:
 873              		.section	.text.Error_Handler,"ax",%progbits
 874              		.align	1
 875              		.global	Error_Handler
 876              		.syntax unified
 877              		.thumb
ARM GAS  C:\Users\Admin\AppData\Local\Temp\cc9fDto3.s 			page 27


 878              		.thumb_func
 880              	Error_Handler:
 881              	.LFB84:
 494:Core/Src/main.c **** 
 495:Core/Src/main.c **** /**
 496:Core/Src/main.c ****  * @brief  This function is executed in case of error occurrence.
 497:Core/Src/main.c ****  * @retval None
 498:Core/Src/main.c ****  */
 499:Core/Src/main.c **** void Error_Handler(void)
 500:Core/Src/main.c **** {
 882              		.loc 1 500 1 is_stmt 1 view -0
 883              		.cfi_startproc
 884              		@ Volatile: function does not return.
 885              		@ args = 0, pretend = 0, frame = 0
 886              		@ frame_needed = 0, uses_anonymous_args = 0
 887              		@ link register save eliminated.
 501:Core/Src/main.c ****   /* USER CODE BEGIN Error_Handler_Debug */
 502:Core/Src/main.c ****   /* User can add his own implementation to report the HAL error return state */
 503:Core/Src/main.c ****   __disable_irq();
 888              		.loc 1 503 3 view .LVU156
 889              	.LBB8:
 890              	.LBI8:
 891              		.file 2 "Drivers/CMSIS/Include/cmsis_gcc.h"
   1:Drivers/CMSIS/Include/cmsis_gcc.h **** /**************************************************************************//**
   2:Drivers/CMSIS/Include/cmsis_gcc.h ****  * @file     cmsis_gcc.h
   3:Drivers/CMSIS/Include/cmsis_gcc.h ****  * @brief    CMSIS compiler GCC header file
   4:Drivers/CMSIS/Include/cmsis_gcc.h ****  * @version  V5.0.4
   5:Drivers/CMSIS/Include/cmsis_gcc.h ****  * @date     09. April 2018
   6:Drivers/CMSIS/Include/cmsis_gcc.h ****  ******************************************************************************/
   7:Drivers/CMSIS/Include/cmsis_gcc.h **** /*
   8:Drivers/CMSIS/Include/cmsis_gcc.h ****  * Copyright (c) 2009-2018 Arm Limited. All rights reserved.
   9:Drivers/CMSIS/Include/cmsis_gcc.h ****  *
  10:Drivers/CMSIS/Include/cmsis_gcc.h ****  * SPDX-License-Identifier: Apache-2.0
  11:Drivers/CMSIS/Include/cmsis_gcc.h ****  *
  12:Drivers/CMSIS/Include/cmsis_gcc.h ****  * Licensed under the Apache License, Version 2.0 (the License); you may
  13:Drivers/CMSIS/Include/cmsis_gcc.h ****  * not use this file except in compliance with the License.
  14:Drivers/CMSIS/Include/cmsis_gcc.h ****  * You may obtain a copy of the License at
  15:Drivers/CMSIS/Include/cmsis_gcc.h ****  *
  16:Drivers/CMSIS/Include/cmsis_gcc.h ****  * www.apache.org/licenses/LICENSE-2.0
  17:Drivers/CMSIS/Include/cmsis_gcc.h ****  *
  18:Drivers/CMSIS/Include/cmsis_gcc.h ****  * Unless required by applicable law or agreed to in writing, software
  19:Drivers/CMSIS/Include/cmsis_gcc.h ****  * distributed under the License is distributed on an AS IS BASIS, WITHOUT
  20:Drivers/CMSIS/Include/cmsis_gcc.h ****  * WARRANTIES OR CONDITIONS OF ANY KIND, either express or implied.
  21:Drivers/CMSIS/Include/cmsis_gcc.h ****  * See the License for the specific language governing permissions and
  22:Drivers/CMSIS/Include/cmsis_gcc.h ****  * limitations under the License.
  23:Drivers/CMSIS/Include/cmsis_gcc.h ****  */
  24:Drivers/CMSIS/Include/cmsis_gcc.h **** 
  25:Drivers/CMSIS/Include/cmsis_gcc.h **** #ifndef __CMSIS_GCC_H
  26:Drivers/CMSIS/Include/cmsis_gcc.h **** #define __CMSIS_GCC_H
  27:Drivers/CMSIS/Include/cmsis_gcc.h **** 
  28:Drivers/CMSIS/Include/cmsis_gcc.h **** /* ignore some GCC warnings */
  29:Drivers/CMSIS/Include/cmsis_gcc.h **** #pragma GCC diagnostic push
  30:Drivers/CMSIS/Include/cmsis_gcc.h **** #pragma GCC diagnostic ignored "-Wsign-conversion"
  31:Drivers/CMSIS/Include/cmsis_gcc.h **** #pragma GCC diagnostic ignored "-Wconversion"
  32:Drivers/CMSIS/Include/cmsis_gcc.h **** #pragma GCC diagnostic ignored "-Wunused-parameter"
  33:Drivers/CMSIS/Include/cmsis_gcc.h **** 
  34:Drivers/CMSIS/Include/cmsis_gcc.h **** /* Fallback for __has_builtin */
ARM GAS  C:\Users\Admin\AppData\Local\Temp\cc9fDto3.s 			page 28


  35:Drivers/CMSIS/Include/cmsis_gcc.h **** #ifndef __has_builtin
  36:Drivers/CMSIS/Include/cmsis_gcc.h ****   #define __has_builtin(x) (0)
  37:Drivers/CMSIS/Include/cmsis_gcc.h **** #endif
  38:Drivers/CMSIS/Include/cmsis_gcc.h **** 
  39:Drivers/CMSIS/Include/cmsis_gcc.h **** /* CMSIS compiler specific defines */
  40:Drivers/CMSIS/Include/cmsis_gcc.h **** #ifndef   __ASM
  41:Drivers/CMSIS/Include/cmsis_gcc.h ****   #define __ASM                                  __asm
  42:Drivers/CMSIS/Include/cmsis_gcc.h **** #endif
  43:Drivers/CMSIS/Include/cmsis_gcc.h **** #ifndef   __INLINE
  44:Drivers/CMSIS/Include/cmsis_gcc.h ****   #define __INLINE                               inline
  45:Drivers/CMSIS/Include/cmsis_gcc.h **** #endif
  46:Drivers/CMSIS/Include/cmsis_gcc.h **** #ifndef   __STATIC_INLINE
  47:Drivers/CMSIS/Include/cmsis_gcc.h ****   #define __STATIC_INLINE                        static inline
  48:Drivers/CMSIS/Include/cmsis_gcc.h **** #endif
  49:Drivers/CMSIS/Include/cmsis_gcc.h **** #ifndef   __STATIC_FORCEINLINE                 
  50:Drivers/CMSIS/Include/cmsis_gcc.h ****   #define __STATIC_FORCEINLINE                   __attribute__((always_inline)) static inline
  51:Drivers/CMSIS/Include/cmsis_gcc.h **** #endif                                           
  52:Drivers/CMSIS/Include/cmsis_gcc.h **** #ifndef   __NO_RETURN
  53:Drivers/CMSIS/Include/cmsis_gcc.h ****   #define __NO_RETURN                            __attribute__((__noreturn__))
  54:Drivers/CMSIS/Include/cmsis_gcc.h **** #endif
  55:Drivers/CMSIS/Include/cmsis_gcc.h **** #ifndef   __USED
  56:Drivers/CMSIS/Include/cmsis_gcc.h ****   #define __USED                                 __attribute__((used))
  57:Drivers/CMSIS/Include/cmsis_gcc.h **** #endif
  58:Drivers/CMSIS/Include/cmsis_gcc.h **** #ifndef   __WEAK
  59:Drivers/CMSIS/Include/cmsis_gcc.h ****   #define __WEAK                                 __attribute__((weak))
  60:Drivers/CMSIS/Include/cmsis_gcc.h **** #endif
  61:Drivers/CMSIS/Include/cmsis_gcc.h **** #ifndef   __PACKED
  62:Drivers/CMSIS/Include/cmsis_gcc.h ****   #define __PACKED                               __attribute__((packed, aligned(1)))
  63:Drivers/CMSIS/Include/cmsis_gcc.h **** #endif
  64:Drivers/CMSIS/Include/cmsis_gcc.h **** #ifndef   __PACKED_STRUCT
  65:Drivers/CMSIS/Include/cmsis_gcc.h ****   #define __PACKED_STRUCT                        struct __attribute__((packed, aligned(1)))
  66:Drivers/CMSIS/Include/cmsis_gcc.h **** #endif
  67:Drivers/CMSIS/Include/cmsis_gcc.h **** #ifndef   __PACKED_UNION
  68:Drivers/CMSIS/Include/cmsis_gcc.h ****   #define __PACKED_UNION                         union __attribute__((packed, aligned(1)))
  69:Drivers/CMSIS/Include/cmsis_gcc.h **** #endif
  70:Drivers/CMSIS/Include/cmsis_gcc.h **** #ifndef   __UNALIGNED_UINT32        /* deprecated */
  71:Drivers/CMSIS/Include/cmsis_gcc.h ****   #pragma GCC diagnostic push
  72:Drivers/CMSIS/Include/cmsis_gcc.h ****   #pragma GCC diagnostic ignored "-Wpacked"
  73:Drivers/CMSIS/Include/cmsis_gcc.h ****   #pragma GCC diagnostic ignored "-Wattributes"
  74:Drivers/CMSIS/Include/cmsis_gcc.h ****   struct __attribute__((packed)) T_UINT32 { uint32_t v; };
  75:Drivers/CMSIS/Include/cmsis_gcc.h ****   #pragma GCC diagnostic pop
  76:Drivers/CMSIS/Include/cmsis_gcc.h ****   #define __UNALIGNED_UINT32(x)                  (((struct T_UINT32 *)(x))->v)
  77:Drivers/CMSIS/Include/cmsis_gcc.h **** #endif
  78:Drivers/CMSIS/Include/cmsis_gcc.h **** #ifndef   __UNALIGNED_UINT16_WRITE
  79:Drivers/CMSIS/Include/cmsis_gcc.h ****   #pragma GCC diagnostic push
  80:Drivers/CMSIS/Include/cmsis_gcc.h ****   #pragma GCC diagnostic ignored "-Wpacked"
  81:Drivers/CMSIS/Include/cmsis_gcc.h ****   #pragma GCC diagnostic ignored "-Wattributes"
  82:Drivers/CMSIS/Include/cmsis_gcc.h ****   __PACKED_STRUCT T_UINT16_WRITE { uint16_t v; };
  83:Drivers/CMSIS/Include/cmsis_gcc.h ****   #pragma GCC diagnostic pop
  84:Drivers/CMSIS/Include/cmsis_gcc.h ****   #define __UNALIGNED_UINT16_WRITE(addr, val)    (void)((((struct T_UINT16_WRITE *)(void *)(addr))-
  85:Drivers/CMSIS/Include/cmsis_gcc.h **** #endif
  86:Drivers/CMSIS/Include/cmsis_gcc.h **** #ifndef   __UNALIGNED_UINT16_READ
  87:Drivers/CMSIS/Include/cmsis_gcc.h ****   #pragma GCC diagnostic push
  88:Drivers/CMSIS/Include/cmsis_gcc.h ****   #pragma GCC diagnostic ignored "-Wpacked"
  89:Drivers/CMSIS/Include/cmsis_gcc.h ****   #pragma GCC diagnostic ignored "-Wattributes"
  90:Drivers/CMSIS/Include/cmsis_gcc.h ****   __PACKED_STRUCT T_UINT16_READ { uint16_t v; };
  91:Drivers/CMSIS/Include/cmsis_gcc.h ****   #pragma GCC diagnostic pop
ARM GAS  C:\Users\Admin\AppData\Local\Temp\cc9fDto3.s 			page 29


  92:Drivers/CMSIS/Include/cmsis_gcc.h ****   #define __UNALIGNED_UINT16_READ(addr)          (((const struct T_UINT16_READ *)(const void *)(add
  93:Drivers/CMSIS/Include/cmsis_gcc.h **** #endif
  94:Drivers/CMSIS/Include/cmsis_gcc.h **** #ifndef   __UNALIGNED_UINT32_WRITE
  95:Drivers/CMSIS/Include/cmsis_gcc.h ****   #pragma GCC diagnostic push
  96:Drivers/CMSIS/Include/cmsis_gcc.h ****   #pragma GCC diagnostic ignored "-Wpacked"
  97:Drivers/CMSIS/Include/cmsis_gcc.h ****   #pragma GCC diagnostic ignored "-Wattributes"
  98:Drivers/CMSIS/Include/cmsis_gcc.h ****   __PACKED_STRUCT T_UINT32_WRITE { uint32_t v; };
  99:Drivers/CMSIS/Include/cmsis_gcc.h ****   #pragma GCC diagnostic pop
 100:Drivers/CMSIS/Include/cmsis_gcc.h ****   #define __UNALIGNED_UINT32_WRITE(addr, val)    (void)((((struct T_UINT32_WRITE *)(void *)(addr))-
 101:Drivers/CMSIS/Include/cmsis_gcc.h **** #endif
 102:Drivers/CMSIS/Include/cmsis_gcc.h **** #ifndef   __UNALIGNED_UINT32_READ
 103:Drivers/CMSIS/Include/cmsis_gcc.h ****   #pragma GCC diagnostic push
 104:Drivers/CMSIS/Include/cmsis_gcc.h ****   #pragma GCC diagnostic ignored "-Wpacked"
 105:Drivers/CMSIS/Include/cmsis_gcc.h ****   #pragma GCC diagnostic ignored "-Wattributes"
 106:Drivers/CMSIS/Include/cmsis_gcc.h ****   __PACKED_STRUCT T_UINT32_READ { uint32_t v; };
 107:Drivers/CMSIS/Include/cmsis_gcc.h ****   #pragma GCC diagnostic pop
 108:Drivers/CMSIS/Include/cmsis_gcc.h ****   #define __UNALIGNED_UINT32_READ(addr)          (((const struct T_UINT32_READ *)(const void *)(add
 109:Drivers/CMSIS/Include/cmsis_gcc.h **** #endif
 110:Drivers/CMSIS/Include/cmsis_gcc.h **** #ifndef   __ALIGNED
 111:Drivers/CMSIS/Include/cmsis_gcc.h ****   #define __ALIGNED(x)                           __attribute__((aligned(x)))
 112:Drivers/CMSIS/Include/cmsis_gcc.h **** #endif
 113:Drivers/CMSIS/Include/cmsis_gcc.h **** #ifndef   __RESTRICT
 114:Drivers/CMSIS/Include/cmsis_gcc.h ****   #define __RESTRICT                             __restrict
 115:Drivers/CMSIS/Include/cmsis_gcc.h **** #endif
 116:Drivers/CMSIS/Include/cmsis_gcc.h **** 
 117:Drivers/CMSIS/Include/cmsis_gcc.h **** 
 118:Drivers/CMSIS/Include/cmsis_gcc.h **** /* ###########################  Core Function Access  ########################### */
 119:Drivers/CMSIS/Include/cmsis_gcc.h **** /** \ingroup  CMSIS_Core_FunctionInterface
 120:Drivers/CMSIS/Include/cmsis_gcc.h ****     \defgroup CMSIS_Core_RegAccFunctions CMSIS Core Register Access Functions
 121:Drivers/CMSIS/Include/cmsis_gcc.h ****   @{
 122:Drivers/CMSIS/Include/cmsis_gcc.h ****  */
 123:Drivers/CMSIS/Include/cmsis_gcc.h **** 
 124:Drivers/CMSIS/Include/cmsis_gcc.h **** /**
 125:Drivers/CMSIS/Include/cmsis_gcc.h ****   \brief   Enable IRQ Interrupts
 126:Drivers/CMSIS/Include/cmsis_gcc.h ****   \details Enables IRQ interrupts by clearing the I-bit in the CPSR.
 127:Drivers/CMSIS/Include/cmsis_gcc.h ****            Can only be executed in Privileged modes.
 128:Drivers/CMSIS/Include/cmsis_gcc.h ****  */
 129:Drivers/CMSIS/Include/cmsis_gcc.h **** __STATIC_FORCEINLINE void __enable_irq(void)
 130:Drivers/CMSIS/Include/cmsis_gcc.h **** {
 131:Drivers/CMSIS/Include/cmsis_gcc.h ****   __ASM volatile ("cpsie i" : : : "memory");
 132:Drivers/CMSIS/Include/cmsis_gcc.h **** }
 133:Drivers/CMSIS/Include/cmsis_gcc.h **** 
 134:Drivers/CMSIS/Include/cmsis_gcc.h **** 
 135:Drivers/CMSIS/Include/cmsis_gcc.h **** /**
 136:Drivers/CMSIS/Include/cmsis_gcc.h ****   \brief   Disable IRQ Interrupts
 137:Drivers/CMSIS/Include/cmsis_gcc.h ****   \details Disables IRQ interrupts by setting the I-bit in the CPSR.
 138:Drivers/CMSIS/Include/cmsis_gcc.h ****            Can only be executed in Privileged modes.
 139:Drivers/CMSIS/Include/cmsis_gcc.h ****  */
 140:Drivers/CMSIS/Include/cmsis_gcc.h **** __STATIC_FORCEINLINE void __disable_irq(void)
 892              		.loc 2 140 27 view .LVU157
 893              	.LBB9:
 141:Drivers/CMSIS/Include/cmsis_gcc.h **** {
 142:Drivers/CMSIS/Include/cmsis_gcc.h ****   __ASM volatile ("cpsid i" : : : "memory");
 894              		.loc 2 142 3 view .LVU158
 895              		.syntax unified
 896              	@ 142 "Drivers/CMSIS/Include/cmsis_gcc.h" 1
 897 0000 72B6     		cpsid i
ARM GAS  C:\Users\Admin\AppData\Local\Temp\cc9fDto3.s 			page 30


 898              	@ 0 "" 2
 899              		.thumb
 900              		.syntax unified
 901              	.L58:
 902              	.LBE9:
 903              	.LBE8:
 504:Core/Src/main.c ****   while (1)
 904              		.loc 1 504 3 discriminator 1 view .LVU159
 505:Core/Src/main.c ****   {
 506:Core/Src/main.c ****   }
 905              		.loc 1 506 3 discriminator 1 view .LVU160
 504:Core/Src/main.c ****   while (1)
 906              		.loc 1 504 9 discriminator 1 view .LVU161
 907 0002 FEE7     		b	.L58
 908              		.cfi_endproc
 909              	.LFE84:
 911              		.section	.text.MX_USART3_UART_Init,"ax",%progbits
 912              		.align	1
 913              		.syntax unified
 914              		.thumb
 915              		.thumb_func
 917              	MX_USART3_UART_Init:
 918              	.LFB77:
 282:Core/Src/main.c **** 
 919              		.loc 1 282 1 view -0
 920              		.cfi_startproc
 921              		@ args = 0, pretend = 0, frame = 0
 922              		@ frame_needed = 0, uses_anonymous_args = 0
 923 0000 08B5     		push	{r3, lr}
 924              	.LCFI10:
 925              		.cfi_def_cfa_offset 8
 926              		.cfi_offset 3, -8
 927              		.cfi_offset 14, -4
 291:Core/Src/main.c ****   huart3.Init.BaudRate = 115200;
 928              		.loc 1 291 3 view .LVU163
 291:Core/Src/main.c ****   huart3.Init.BaudRate = 115200;
 929              		.loc 1 291 19 is_stmt 0 view .LVU164
 930 0002 0A48     		ldr	r0, .L63
 931 0004 0A4B     		ldr	r3, .L63+4
 932 0006 0360     		str	r3, [r0]
 292:Core/Src/main.c ****   huart3.Init.WordLength = UART_WORDLENGTH_8B;
 933              		.loc 1 292 3 is_stmt 1 view .LVU165
 292:Core/Src/main.c ****   huart3.Init.WordLength = UART_WORDLENGTH_8B;
 934              		.loc 1 292 24 is_stmt 0 view .LVU166
 935 0008 4FF4E133 		mov	r3, #115200
 936 000c 4360     		str	r3, [r0, #4]
 293:Core/Src/main.c ****   huart3.Init.StopBits = UART_STOPBITS_1;
 937              		.loc 1 293 3 is_stmt 1 view .LVU167
 293:Core/Src/main.c ****   huart3.Init.StopBits = UART_STOPBITS_1;
 938              		.loc 1 293 26 is_stmt 0 view .LVU168
 939 000e 0023     		movs	r3, #0
 940 0010 8360     		str	r3, [r0, #8]
 294:Core/Src/main.c ****   huart3.Init.Parity = UART_PARITY_NONE;
 941              		.loc 1 294 3 is_stmt 1 view .LVU169
 294:Core/Src/main.c ****   huart3.Init.Parity = UART_PARITY_NONE;
 942              		.loc 1 294 24 is_stmt 0 view .LVU170
 943 0012 C360     		str	r3, [r0, #12]
ARM GAS  C:\Users\Admin\AppData\Local\Temp\cc9fDto3.s 			page 31


 295:Core/Src/main.c ****   huart3.Init.Mode = UART_MODE_TX_RX;
 944              		.loc 1 295 3 is_stmt 1 view .LVU171
 295:Core/Src/main.c ****   huart3.Init.Mode = UART_MODE_TX_RX;
 945              		.loc 1 295 22 is_stmt 0 view .LVU172
 946 0014 0361     		str	r3, [r0, #16]
 296:Core/Src/main.c ****   huart3.Init.HwFlowCtl = UART_HWCONTROL_NONE;
 947              		.loc 1 296 3 is_stmt 1 view .LVU173
 296:Core/Src/main.c ****   huart3.Init.HwFlowCtl = UART_HWCONTROL_NONE;
 948              		.loc 1 296 20 is_stmt 0 view .LVU174
 949 0016 0C22     		movs	r2, #12
 950 0018 4261     		str	r2, [r0, #20]
 297:Core/Src/main.c ****   huart3.Init.OverSampling = UART_OVERSAMPLING_16;
 951              		.loc 1 297 3 is_stmt 1 view .LVU175
 297:Core/Src/main.c ****   huart3.Init.OverSampling = UART_OVERSAMPLING_16;
 952              		.loc 1 297 25 is_stmt 0 view .LVU176
 953 001a 8361     		str	r3, [r0, #24]
 298:Core/Src/main.c ****   if (HAL_UART_Init(&huart3) != HAL_OK)
 954              		.loc 1 298 3 is_stmt 1 view .LVU177
 298:Core/Src/main.c ****   if (HAL_UART_Init(&huart3) != HAL_OK)
 955              		.loc 1 298 28 is_stmt 0 view .LVU178
 956 001c C361     		str	r3, [r0, #28]
 299:Core/Src/main.c ****   {
 957              		.loc 1 299 3 is_stmt 1 view .LVU179
 299:Core/Src/main.c ****   {
 958              		.loc 1 299 7 is_stmt 0 view .LVU180
 959 001e FFF7FEFF 		bl	HAL_UART_Init
 960              	.LVL72:
 299:Core/Src/main.c ****   {
 961              		.loc 1 299 6 view .LVU181
 962 0022 00B9     		cbnz	r0, .L62
 306:Core/Src/main.c **** 
 963              		.loc 1 306 1 view .LVU182
 964 0024 08BD     		pop	{r3, pc}
 965              	.L62:
 301:Core/Src/main.c ****   }
 966              		.loc 1 301 5 is_stmt 1 view .LVU183
 967 0026 FFF7FEFF 		bl	Error_Handler
 968              	.LVL73:
 969              	.L64:
 970 002a 00BF     		.align	2
 971              	.L63:
 972 002c 00000000 		.word	.LANCHOR0
 973 0030 00480040 		.word	1073760256
 974              		.cfi_endproc
 975              	.LFE77:
 977              		.section	.text.SystemClock_Config,"ax",%progbits
 978              		.align	1
 979              		.global	SystemClock_Config
 980              		.syntax unified
 981              		.thumb
 982              		.thumb_func
 984              	SystemClock_Config:
 985              	.LFB76:
 243:Core/Src/main.c ****   RCC_OscInitTypeDef RCC_OscInitStruct = {0};
 986              		.loc 1 243 1 view -0
 987              		.cfi_startproc
 988              		@ args = 0, pretend = 0, frame = 64
ARM GAS  C:\Users\Admin\AppData\Local\Temp\cc9fDto3.s 			page 32


 989              		@ frame_needed = 0, uses_anonymous_args = 0
 990 0000 00B5     		push	{lr}
 991              	.LCFI11:
 992              		.cfi_def_cfa_offset 4
 993              		.cfi_offset 14, -4
 994 0002 91B0     		sub	sp, sp, #68
 995              	.LCFI12:
 996              		.cfi_def_cfa_offset 72
 244:Core/Src/main.c ****   RCC_ClkInitTypeDef RCC_ClkInitStruct = {0};
 997              		.loc 1 244 3 view .LVU185
 244:Core/Src/main.c ****   RCC_ClkInitTypeDef RCC_ClkInitStruct = {0};
 998              		.loc 1 244 22 is_stmt 0 view .LVU186
 999 0004 2822     		movs	r2, #40
 1000 0006 0021     		movs	r1, #0
 1001 0008 06A8     		add	r0, sp, #24
 1002 000a FFF7FEFF 		bl	memset
 1003              	.LVL74:
 245:Core/Src/main.c **** 
 1004              		.loc 1 245 3 is_stmt 1 view .LVU187
 245:Core/Src/main.c **** 
 1005              		.loc 1 245 22 is_stmt 0 view .LVU188
 1006 000e 0023     		movs	r3, #0
 1007 0010 0193     		str	r3, [sp, #4]
 1008 0012 0293     		str	r3, [sp, #8]
 1009 0014 0393     		str	r3, [sp, #12]
 1010 0016 0493     		str	r3, [sp, #16]
 1011 0018 0593     		str	r3, [sp, #20]
 250:Core/Src/main.c ****   RCC_OscInitStruct.HSEState = RCC_HSE_ON;
 1012              		.loc 1 250 3 is_stmt 1 view .LVU189
 250:Core/Src/main.c ****   RCC_OscInitStruct.HSEState = RCC_HSE_ON;
 1013              		.loc 1 250 36 is_stmt 0 view .LVU190
 1014 001a 0122     		movs	r2, #1
 1015 001c 0692     		str	r2, [sp, #24]
 251:Core/Src/main.c ****   RCC_OscInitStruct.HSEPredivValue = RCC_HSE_PREDIV_DIV1;
 1016              		.loc 1 251 3 is_stmt 1 view .LVU191
 251:Core/Src/main.c ****   RCC_OscInitStruct.HSEPredivValue = RCC_HSE_PREDIV_DIV1;
 1017              		.loc 1 251 30 is_stmt 0 view .LVU192
 1018 001e 4FF48033 		mov	r3, #65536
 1019 0022 0793     		str	r3, [sp, #28]
 252:Core/Src/main.c ****   RCC_OscInitStruct.HSIState = RCC_HSI_ON;
 1020              		.loc 1 252 3 is_stmt 1 view .LVU193
 253:Core/Src/main.c ****   RCC_OscInitStruct.PLL.PLLState = RCC_PLL_ON;
 1021              		.loc 1 253 3 view .LVU194
 253:Core/Src/main.c ****   RCC_OscInitStruct.PLL.PLLState = RCC_PLL_ON;
 1022              		.loc 1 253 30 is_stmt 0 view .LVU195
 1023 0024 0A92     		str	r2, [sp, #40]
 254:Core/Src/main.c ****   RCC_OscInitStruct.PLL.PLLSource = RCC_PLLSOURCE_HSE;
 1024              		.loc 1 254 3 is_stmt 1 view .LVU196
 254:Core/Src/main.c ****   RCC_OscInitStruct.PLL.PLLSource = RCC_PLLSOURCE_HSE;
 1025              		.loc 1 254 34 is_stmt 0 view .LVU197
 1026 0026 0222     		movs	r2, #2
 1027 0028 0D92     		str	r2, [sp, #52]
 255:Core/Src/main.c ****   RCC_OscInitStruct.PLL.PLLMUL = RCC_PLL_MUL9;
 1028              		.loc 1 255 3 is_stmt 1 view .LVU198
 255:Core/Src/main.c ****   RCC_OscInitStruct.PLL.PLLMUL = RCC_PLL_MUL9;
 1029              		.loc 1 255 35 is_stmt 0 view .LVU199
 1030 002a 0E93     		str	r3, [sp, #56]
ARM GAS  C:\Users\Admin\AppData\Local\Temp\cc9fDto3.s 			page 33


 256:Core/Src/main.c ****   if (HAL_RCC_OscConfig(&RCC_OscInitStruct) != HAL_OK)
 1031              		.loc 1 256 3 is_stmt 1 view .LVU200
 256:Core/Src/main.c ****   if (HAL_RCC_OscConfig(&RCC_OscInitStruct) != HAL_OK)
 1032              		.loc 1 256 32 is_stmt 0 view .LVU201
 1033 002c 4FF4E013 		mov	r3, #1835008
 1034 0030 0F93     		str	r3, [sp, #60]
 257:Core/Src/main.c ****   {
 1035              		.loc 1 257 3 is_stmt 1 view .LVU202
 257:Core/Src/main.c ****   {
 1036              		.loc 1 257 7 is_stmt 0 view .LVU203
 1037 0032 06A8     		add	r0, sp, #24
 1038 0034 FFF7FEFF 		bl	HAL_RCC_OscConfig
 1039              	.LVL75:
 257:Core/Src/main.c ****   {
 1040              		.loc 1 257 6 view .LVU204
 1041 0038 80B9     		cbnz	r0, .L69
 264:Core/Src/main.c ****   RCC_ClkInitStruct.SYSCLKSource = RCC_SYSCLKSOURCE_PLLCLK;
 1042              		.loc 1 264 3 is_stmt 1 view .LVU205
 264:Core/Src/main.c ****   RCC_ClkInitStruct.SYSCLKSource = RCC_SYSCLKSOURCE_PLLCLK;
 1043              		.loc 1 264 31 is_stmt 0 view .LVU206
 1044 003a 0F23     		movs	r3, #15
 1045 003c 0193     		str	r3, [sp, #4]
 265:Core/Src/main.c ****   RCC_ClkInitStruct.AHBCLKDivider = RCC_SYSCLK_DIV1;
 1046              		.loc 1 265 3 is_stmt 1 view .LVU207
 265:Core/Src/main.c ****   RCC_ClkInitStruct.AHBCLKDivider = RCC_SYSCLK_DIV1;
 1047              		.loc 1 265 34 is_stmt 0 view .LVU208
 1048 003e 0221     		movs	r1, #2
 1049 0040 0291     		str	r1, [sp, #8]
 266:Core/Src/main.c ****   RCC_ClkInitStruct.APB1CLKDivider = RCC_HCLK_DIV2;
 1050              		.loc 1 266 3 is_stmt 1 view .LVU209
 266:Core/Src/main.c ****   RCC_ClkInitStruct.APB1CLKDivider = RCC_HCLK_DIV2;
 1051              		.loc 1 266 35 is_stmt 0 view .LVU210
 1052 0042 0023     		movs	r3, #0
 1053 0044 0393     		str	r3, [sp, #12]
 267:Core/Src/main.c ****   RCC_ClkInitStruct.APB2CLKDivider = RCC_HCLK_DIV1;
 1054              		.loc 1 267 3 is_stmt 1 view .LVU211
 267:Core/Src/main.c ****   RCC_ClkInitStruct.APB2CLKDivider = RCC_HCLK_DIV1;
 1055              		.loc 1 267 36 is_stmt 0 view .LVU212
 1056 0046 4FF48062 		mov	r2, #1024
 1057 004a 0492     		str	r2, [sp, #16]
 268:Core/Src/main.c **** 
 1058              		.loc 1 268 3 is_stmt 1 view .LVU213
 268:Core/Src/main.c **** 
 1059              		.loc 1 268 36 is_stmt 0 view .LVU214
 1060 004c 0593     		str	r3, [sp, #20]
 270:Core/Src/main.c ****   {
 1061              		.loc 1 270 3 is_stmt 1 view .LVU215
 270:Core/Src/main.c ****   {
 1062              		.loc 1 270 7 is_stmt 0 view .LVU216
 1063 004e 01A8     		add	r0, sp, #4
 1064 0050 FFF7FEFF 		bl	HAL_RCC_ClockConfig
 1065              	.LVL76:
 270:Core/Src/main.c ****   {
 1066              		.loc 1 270 6 view .LVU217
 1067 0054 20B9     		cbnz	r0, .L70
 274:Core/Src/main.c **** 
 1068              		.loc 1 274 1 view .LVU218
ARM GAS  C:\Users\Admin\AppData\Local\Temp\cc9fDto3.s 			page 34


 1069 0056 11B0     		add	sp, sp, #68
 1070              	.LCFI13:
 1071              		.cfi_remember_state
 1072              		.cfi_def_cfa_offset 4
 1073              		@ sp needed
 1074 0058 5DF804FB 		ldr	pc, [sp], #4
 1075              	.L69:
 1076              	.LCFI14:
 1077              		.cfi_restore_state
 259:Core/Src/main.c ****   }
 1078              		.loc 1 259 5 is_stmt 1 view .LVU219
 1079 005c FFF7FEFF 		bl	Error_Handler
 1080              	.LVL77:
 1081              	.L70:
 272:Core/Src/main.c ****   }
 1082              		.loc 1 272 5 view .LVU220
 1083 0060 FFF7FEFF 		bl	Error_Handler
 1084              	.LVL78:
 1085              		.cfi_endproc
 1086              	.LFE76:
 1088              		.section	.rodata.main.str1.4,"aMS",%progbits,1
 1089              		.align	2
 1090              	.LC34:
 1091 0000 73746172 		.ascii	"start\012\000"
 1091      740A00
 1092              		.section	.text.main,"ax",%progbits
 1093              		.align	1
 1094              		.global	main
 1095              		.syntax unified
 1096              		.thumb
 1097              		.thumb_func
 1099              	main:
 1100              	.LFB75:
 141:Core/Src/main.c ****   /* USER CODE BEGIN 1 */
 1101              		.loc 1 141 1 view -0
 1102              		.cfi_startproc
 1103              		@ Volatile: function does not return.
 1104              		@ args = 0, pretend = 0, frame = 144
 1105              		@ frame_needed = 0, uses_anonymous_args = 0
 1106 0000 00B5     		push	{lr}
 1107              	.LCFI15:
 1108              		.cfi_def_cfa_offset 4
 1109              		.cfi_offset 14, -4
 1110 0002 A5B0     		sub	sp, sp, #148
 1111              	.LCFI16:
 1112              		.cfi_def_cfa_offset 152
 149:Core/Src/main.c **** 
 1113              		.loc 1 149 3 view .LVU222
 1114 0004 FFF7FEFF 		bl	HAL_Init
 1115              	.LVL79:
 156:Core/Src/main.c **** 
 1116              		.loc 1 156 3 view .LVU223
 1117 0008 FFF7FEFF 		bl	SystemClock_Config
 1118              	.LVL80:
 163:Core/Src/main.c ****   MX_USART3_UART_Init();
 1119              		.loc 1 163 3 view .LVU224
 1120 000c FFF7FEFF 		bl	MX_GPIO_Init
ARM GAS  C:\Users\Admin\AppData\Local\Temp\cc9fDto3.s 			page 35


 1121              	.LVL81:
 164:Core/Src/main.c ****   /* USER CODE BEGIN 2 */
 1122              		.loc 1 164 3 view .LVU225
 1123 0010 FFF7FEFF 		bl	MX_USART3_UART_Init
 1124              	.LVL82:
 166:Core/Src/main.c ****   /* USER CODE END 2 */
 1125              		.loc 1 166 3 view .LVU226
 1126 0014 0122     		movs	r2, #1
 1127 0016 3949     		ldr	r1, .L74
 1128 0018 3948     		ldr	r0, .L74+4
 1129 001a FFF7FEFF 		bl	HAL_UART_Receive_IT
 1130              	.LVL83:
 175:Core/Src/main.c ****   SensorSemHandle = osSemaphoreCreate(osSemaphore(SensorSem), 1);
 1131              		.loc 1 175 3 view .LVU227
 1132 001e 0025     		movs	r5, #0
 1133 0020 2295     		str	r5, [sp, #136]
 1134 0022 2395     		str	r5, [sp, #140]
 176:Core/Src/main.c **** 
 1135              		.loc 1 176 3 view .LVU228
 176:Core/Src/main.c **** 
 1136              		.loc 1 176 21 is_stmt 0 view .LVU229
 1137 0024 0121     		movs	r1, #1
 1138 0026 22A8     		add	r0, sp, #136
 1139 0028 FFF7FEFF 		bl	osSemaphoreCreate
 1140              	.LVL84:
 176:Core/Src/main.c **** 
 1141              		.loc 1 176 19 view .LVU230
 1142 002c 354B     		ldr	r3, .L74+8
 1143 002e 1860     		str	r0, [r3]
 179:Core/Src/main.c ****   ServoSemHandle = osSemaphoreCreate(osSemaphore(ServoSem), 1);
 1144              		.loc 1 179 3 is_stmt 1 view .LVU231
 1145 0030 2095     		str	r5, [sp, #128]
 1146 0032 2195     		str	r5, [sp, #132]
 180:Core/Src/main.c **** 
 1147              		.loc 1 180 3 view .LVU232
 180:Core/Src/main.c **** 
 1148              		.loc 1 180 20 is_stmt 0 view .LVU233
 1149 0034 0121     		movs	r1, #1
 1150 0036 20A8     		add	r0, sp, #128
 1151 0038 FFF7FEFF 		bl	osSemaphoreCreate
 1152              	.LVL85:
 180:Core/Src/main.c **** 
 1153              		.loc 1 180 18 view .LVU234
 1154 003c 324B     		ldr	r3, .L74+12
 1155 003e 1860     		str	r0, [r3]
 183:Core/Src/main.c ****   DataSemHandle = osSemaphoreCreate(osSemaphore(DataSem), 1);
 1156              		.loc 1 183 3 is_stmt 1 view .LVU235
 1157 0040 1E95     		str	r5, [sp, #120]
 1158 0042 1F95     		str	r5, [sp, #124]
 184:Core/Src/main.c **** 
 1159              		.loc 1 184 3 view .LVU236
 184:Core/Src/main.c **** 
 1160              		.loc 1 184 19 is_stmt 0 view .LVU237
 1161 0044 0121     		movs	r1, #1
 1162 0046 1EA8     		add	r0, sp, #120
 1163 0048 FFF7FEFF 		bl	osSemaphoreCreate
 1164              	.LVL86:
ARM GAS  C:\Users\Admin\AppData\Local\Temp\cc9fDto3.s 			page 36


 184:Core/Src/main.c **** 
 1165              		.loc 1 184 17 view .LVU238
 1166 004c 2F4B     		ldr	r3, .L74+16
 1167 004e 1860     		str	r0, [r3]
 187:Core/Src/main.c ****   IRQSemHandle = osSemaphoreCreate(osSemaphore(IRQSem), 1);
 1168              		.loc 1 187 3 is_stmt 1 view .LVU239
 1169 0050 1C95     		str	r5, [sp, #112]
 1170 0052 1D95     		str	r5, [sp, #116]
 188:Core/Src/main.c **** 
 1171              		.loc 1 188 3 view .LVU240
 188:Core/Src/main.c **** 
 1172              		.loc 1 188 18 is_stmt 0 view .LVU241
 1173 0054 0121     		movs	r1, #1
 1174 0056 1CA8     		add	r0, sp, #112
 1175 0058 FFF7FEFF 		bl	osSemaphoreCreate
 1176              	.LVL87:
 188:Core/Src/main.c **** 
 1177              		.loc 1 188 16 view .LVU242
 1178 005c 2C4B     		ldr	r3, .L74+20
 1179 005e 1860     		str	r0, [r3]
 204:Core/Src/main.c ****   Task1Handle = osThreadCreate(osThread(Task1), NULL);
 1180              		.loc 1 204 3 is_stmt 1 view .LVU243
 1181 0060 2C4C     		ldr	r4, .L74+24
 1182 0062 0DF1540C 		add	ip, sp, #84
 1183 0066 A646     		mov	lr, r4
 1184 0068 BEE80F00 		ldmia	lr!, {r0, r1, r2, r3}
 1185 006c ACE80F00 		stmia	ip!, {r0, r1, r2, r3}
 1186 0070 9EE80700 		ldm	lr, {r0, r1, r2}
 1187 0074 8CE80700 		stm	ip, {r0, r1, r2}
 205:Core/Src/main.c **** 
 1188              		.loc 1 205 3 view .LVU244
 205:Core/Src/main.c **** 
 1189              		.loc 1 205 17 is_stmt 0 view .LVU245
 1190 0078 2946     		mov	r1, r5
 1191 007a 15A8     		add	r0, sp, #84
 1192 007c FFF7FEFF 		bl	osThreadCreate
 1193              	.LVL88:
 205:Core/Src/main.c **** 
 1194              		.loc 1 205 15 view .LVU246
 1195 0080 254B     		ldr	r3, .L74+28
 1196 0082 1860     		str	r0, [r3]
 208:Core/Src/main.c ****   Task2Handle = osThreadCreate(osThread(Task2), NULL);
 1197              		.loc 1 208 3 is_stmt 1 view .LVU247
 1198 0084 0DF1380C 		add	ip, sp, #56
 1199 0088 04F11C0E 		add	lr, r4, #28
 1200 008c BEE80F00 		ldmia	lr!, {r0, r1, r2, r3}
 1201 0090 ACE80F00 		stmia	ip!, {r0, r1, r2, r3}
 1202 0094 9EE80700 		ldm	lr, {r0, r1, r2}
 1203 0098 8CE80700 		stm	ip, {r0, r1, r2}
 209:Core/Src/main.c **** 
 1204              		.loc 1 209 3 view .LVU248
 209:Core/Src/main.c **** 
 1205              		.loc 1 209 17 is_stmt 0 view .LVU249
 1206 009c 2946     		mov	r1, r5
 1207 009e 0EA8     		add	r0, sp, #56
 1208 00a0 FFF7FEFF 		bl	osThreadCreate
 1209              	.LVL89:
ARM GAS  C:\Users\Admin\AppData\Local\Temp\cc9fDto3.s 			page 37


 209:Core/Src/main.c **** 
 1210              		.loc 1 209 15 view .LVU250
 1211 00a4 1D4B     		ldr	r3, .L74+32
 1212 00a6 1860     		str	r0, [r3]
 212:Core/Src/main.c ****   Task3Handle = osThreadCreate(osThread(Task3), NULL);
 1213              		.loc 1 212 3 is_stmt 1 view .LVU251
 1214 00a8 0DF11C0C 		add	ip, sp, #28
 1215 00ac 04F1380E 		add	lr, r4, #56
 1216 00b0 BEE80F00 		ldmia	lr!, {r0, r1, r2, r3}
 1217 00b4 ACE80F00 		stmia	ip!, {r0, r1, r2, r3}
 1218 00b8 9EE80700 		ldm	lr, {r0, r1, r2}
 1219 00bc 8CE80700 		stm	ip, {r0, r1, r2}
 213:Core/Src/main.c **** 
 1220              		.loc 1 213 3 view .LVU252
 213:Core/Src/main.c **** 
 1221              		.loc 1 213 17 is_stmt 0 view .LVU253
 1222 00c0 2946     		mov	r1, r5
 1223 00c2 07A8     		add	r0, sp, #28
 1224 00c4 FFF7FEFF 		bl	osThreadCreate
 1225              	.LVL90:
 213:Core/Src/main.c **** 
 1226              		.loc 1 213 15 view .LVU254
 1227 00c8 154B     		ldr	r3, .L74+36
 1228 00ca 1860     		str	r0, [r3]
 216:Core/Src/main.c ****   Task4Handle = osThreadCreate(osThread(Task4), NULL);
 1229              		.loc 1 216 3 is_stmt 1 view .LVU255
 1230 00cc EE46     		mov	lr, sp
 1231 00ce 04F1540C 		add	ip, r4, #84
 1232 00d2 BCE80F00 		ldmia	ip!, {r0, r1, r2, r3}
 1233 00d6 AEE80F00 		stmia	lr!, {r0, r1, r2, r3}
 1234 00da 9CE80700 		ldm	ip, {r0, r1, r2}
 1235 00de 8EE80700 		stm	lr, {r0, r1, r2}
 217:Core/Src/main.c **** 
 1236              		.loc 1 217 3 view .LVU256
 217:Core/Src/main.c **** 
 1237              		.loc 1 217 17 is_stmt 0 view .LVU257
 1238 00e2 2946     		mov	r1, r5
 1239 00e4 6846     		mov	r0, sp
 1240 00e6 FFF7FEFF 		bl	osThreadCreate
 1241              	.LVL91:
 217:Core/Src/main.c **** 
 1242              		.loc 1 217 15 view .LVU258
 1243 00ea 0E4B     		ldr	r3, .L74+40
 1244 00ec 1860     		str	r0, [r3]
 222:Core/Src/main.c ****   /* Start scheduler */
 1245              		.loc 1 222 3 is_stmt 1 view .LVU259
 1246 00ee 0E48     		ldr	r0, .L74+44
 1247 00f0 FFF7FEFF 		bl	log_data
 1248              	.LVL92:
 224:Core/Src/main.c ****   
 1249              		.loc 1 224 3 view .LVU260
 1250 00f4 FFF7FEFF 		bl	osKernelStart
 1251              	.LVL93:
 1252              	.L72:
 229:Core/Src/main.c ****   {
 1253              		.loc 1 229 3 discriminator 1 view .LVU261
 234:Core/Src/main.c ****   /* USER CODE END 3 */
ARM GAS  C:\Users\Admin\AppData\Local\Temp\cc9fDto3.s 			page 38


 1254              		.loc 1 234 3 discriminator 1 view .LVU262
 229:Core/Src/main.c ****   {
 1255              		.loc 1 229 9 discriminator 1 view .LVU263
 1256 00f8 FEE7     		b	.L72
 1257              	.L75:
 1258 00fa 00BF     		.align	2
 1259              	.L74:
 1260 00fc 00000000 		.word	.LANCHOR16
 1261 0100 00000000 		.word	.LANCHOR0
 1262 0104 00000000 		.word	.LANCHOR1
 1263 0108 00000000 		.word	.LANCHOR6
 1264 010c 00000000 		.word	.LANCHOR2
 1265 0110 00000000 		.word	.LANCHOR11
 1266 0114 00000000 		.word	.LANCHOR18
 1267 0118 00000000 		.word	.LANCHOR19
 1268 011c 00000000 		.word	.LANCHOR20
 1269 0120 00000000 		.word	.LANCHOR21
 1270 0124 00000000 		.word	.LANCHOR22
 1271 0128 00000000 		.word	.LC34
 1272              		.cfi_endproc
 1273              	.LFE75:
 1275              		.global	PC_threshold
 1276              		.global	PC_rota
 1277              		.global	angle
 1278              		.global	str_thres
 1279              		.global	label_thres
 1280              		.global	threshold
 1281              		.global	rota
 1282              		.global	count
 1283              		.global	buf_humi
 1284              		.global	buf_temp
 1285              		.global	buf_sensor
 1286              		.global	humi
 1287              		.global	temp
 1288              		.global	Rx_index
 1289              		.global	buffer_data
 1290              		.global	Rx_data
 1291              		.global	Mode
 1292              		.global	IRQSemHandle
 1293              		.global	DataSemHandle
 1294              		.global	ServoSemHandle
 1295              		.global	SensorSemHandle
 1296              		.global	Task4Handle
 1297              		.global	Task3Handle
 1298              		.global	Task2Handle
 1299              		.global	Task1Handle
 1300              		.global	huart3
 1301              		.section	.rodata
 1302              		.align	2
 1303              		.set	.LANCHOR18,. + 0
 1304              	.LC30:
 1305 0000 00000000 		.word	.LC0
 1306 0004 00000000 		.word	Task_Sensor
 1307 0008 0200     		.short	2
 1308 000a 0000     		.space	2
 1309 000c 00000000 		.word	0
 1310 0010 80000000 		.word	128
ARM GAS  C:\Users\Admin\AppData\Local\Temp\cc9fDto3.s 			page 39


 1311 0014 00000000 		.word	0
 1312 0018 00000000 		.word	0
 1313              	.LC31:
 1314 001c 08000000 		.word	.LC2
 1315 0020 00000000 		.word	Task_Servo
 1316 0024 0100     		.short	1
 1317 0026 0000     		.space	2
 1318 0028 00000000 		.word	0
 1319 002c 80000000 		.word	128
 1320 0030 00000000 		.word	0
 1321 0034 00000000 		.word	0
 1322              	.LC32:
 1323 0038 10000000 		.word	.LC4
 1324 003c 00000000 		.word	Task_Display
 1325 0040 0000     		.short	0
 1326 0042 0000     		.space	2
 1327 0044 00000000 		.word	0
 1328 0048 80000000 		.word	128
 1329 004c 00000000 		.word	0
 1330 0050 00000000 		.word	0
 1331              	.LC33:
 1332 0054 18000000 		.word	.LC6
 1333 0058 00000000 		.word	Task_Data
 1334 005c FFFF     		.short	-1
 1335 005e 0000     		.space	2
 1336 0060 00000000 		.word	0
 1337 0064 80000000 		.word	128
 1338 0068 00000000 		.word	0
 1339 006c 00000000 		.word	0
 1340              		.section	.bss.DataSemHandle,"aw",%nobits
 1341              		.align	2
 1342              		.set	.LANCHOR2,. + 0
 1345              	DataSemHandle:
 1346 0000 00000000 		.space	4
 1347              		.section	.bss.IRQSemHandle,"aw",%nobits
 1348              		.align	2
 1349              		.set	.LANCHOR11,. + 0
 1352              	IRQSemHandle:
 1353 0000 00000000 		.space	4
 1354              		.section	.bss.Mode,"aw",%nobits
 1355              		.align	2
 1356              		.set	.LANCHOR3,. + 0
 1359              	Mode:
 1360 0000 00000000 		.space	4
 1361              		.section	.bss.PC_rota,"aw",%nobits
 1362              		.align	2
 1363              		.set	.LANCHOR5,. + 0
 1366              	PC_rota:
 1367 0000 00000000 		.space	4
 1368              		.section	.bss.PC_threshold,"aw",%nobits
 1369              		.align	2
 1370              		.set	.LANCHOR15,. + 0
 1373              	PC_threshold:
 1374 0000 00000000 		.space	4
 1375              		.section	.bss.Rx_data,"aw",%nobits
 1376              		.set	.LANCHOR16,. + 0
 1379              	Rx_data:
ARM GAS  C:\Users\Admin\AppData\Local\Temp\cc9fDto3.s 			page 40


 1380 0000 00       		.space	1
 1381              		.section	.bss.Rx_index,"aw",%nobits
 1382              		.align	2
 1383              		.set	.LANCHOR17,. + 0
 1386              	Rx_index:
 1387 0000 00000000 		.space	4
 1388              		.section	.bss.SensorSemHandle,"aw",%nobits
 1389              		.align	2
 1390              		.set	.LANCHOR1,. + 0
 1393              	SensorSemHandle:
 1394 0000 00000000 		.space	4
 1395              		.section	.bss.ServoSemHandle,"aw",%nobits
 1396              		.align	2
 1397              		.set	.LANCHOR6,. + 0
 1400              	ServoSemHandle:
 1401 0000 00000000 		.space	4
 1402              		.section	.bss.Task1Handle,"aw",%nobits
 1403              		.align	2
 1404              		.set	.LANCHOR19,. + 0
 1407              	Task1Handle:
 1408 0000 00000000 		.space	4
 1409              		.section	.bss.Task2Handle,"aw",%nobits
 1410              		.align	2
 1411              		.set	.LANCHOR20,. + 0
 1414              	Task2Handle:
 1415 0000 00000000 		.space	4
 1416              		.section	.bss.Task3Handle,"aw",%nobits
 1417              		.align	2
 1418              		.set	.LANCHOR21,. + 0
 1421              	Task3Handle:
 1422 0000 00000000 		.space	4
 1423              		.section	.bss.Task4Handle,"aw",%nobits
 1424              		.align	2
 1425              		.set	.LANCHOR22,. + 0
 1428              	Task4Handle:
 1429 0000 00000000 		.space	4
 1430              		.section	.bss.angle,"aw",%nobits
 1431              		.align	2
 1434              	angle:
 1435 0000 00000000 		.space	4
 1436              		.section	.bss.buf_humi,"aw",%nobits
 1437              		.align	2
 1438              		.set	.LANCHOR9,. + 0
 1441              	buf_humi:
 1442 0000 00000000 		.space	20
 1442      00000000 
 1442      00000000 
 1442      00000000 
 1442      00000000 
 1443              		.section	.bss.buf_sensor,"aw",%nobits
 1444              		.align	2
 1447              	buf_sensor:
 1448 0000 00000000 		.space	20
 1448      00000000 
 1448      00000000 
 1448      00000000 
 1448      00000000 
ARM GAS  C:\Users\Admin\AppData\Local\Temp\cc9fDto3.s 			page 41


 1449              		.section	.bss.buf_temp,"aw",%nobits
 1450              		.align	2
 1451              		.set	.LANCHOR7,. + 0
 1454              	buf_temp:
 1455 0000 00000000 		.space	20
 1455      00000000 
 1455      00000000 
 1455      00000000 
 1455      00000000 
 1456              		.section	.bss.buffer_data,"aw",%nobits
 1457              		.align	2
 1458              		.set	.LANCHOR12,. + 0
 1461              	buffer_data:
 1462 0000 00000000 		.space	50
 1462      00000000 
 1462      00000000 
 1462      00000000 
 1462      00000000 
 1463              		.section	.bss.huart3,"aw",%nobits
 1464              		.align	2
 1465              		.set	.LANCHOR0,. + 0
 1468              	huart3:
 1469 0000 00000000 		.space	68
 1469      00000000 
 1469      00000000 
 1469      00000000 
 1469      00000000 
 1470              		.section	.bss.label_thres,"aw",%nobits
 1471              		.align	2
 1472              		.set	.LANCHOR14,. + 0
 1475              	label_thres:
 1476 0000 00000000 		.space	10
 1476      00000000 
 1476      0000
 1477              		.section	.bss.rota,"aw",%nobits
 1478              		.align	2
 1479              		.set	.LANCHOR10,. + 0
 1482              	rota:
 1483 0000 00000000 		.space	20
 1483      00000000 
 1483      00000000 
 1483      00000000 
 1483      00000000 
 1484              		.section	.bss.str_thres,"aw",%nobits
 1485              		.align	2
 1486              		.set	.LANCHOR13,. + 0
 1489              	str_thres:
 1490 0000 00000000 		.space	5
 1490      00
 1491              		.section	.bss.threshold,"aw",%nobits
 1492              		.align	2
 1495              	threshold:
 1496 0000 00000000 		.space	20
 1496      00000000 
 1496      00000000 
 1496      00000000 
 1496      00000000 
ARM GAS  C:\Users\Admin\AppData\Local\Temp\cc9fDto3.s 			page 42


 1497              		.section	.data.count,"aw"
 1498              		.align	2
 1501              	count:
 1502 0000 19000000 		.word	25
 1503              		.section	.data.humi,"aw"
 1504              		.align	2
 1505              		.set	.LANCHOR8,. + 0
 1508              	humi:
 1509 0000 5A000000 		.word	90
 1510              		.section	.data.temp,"aw"
 1511              		.align	2
 1512              		.set	.LANCHOR4,. + 0
 1515              	temp:
 1516 0000 1E000000 		.word	30
 1517              		.text
 1518              	.Letext0:
 1519              		.file 3 "d:\\10 2021.10\\arm-none-eabi\\include\\machine\\_default_types.h"
 1520              		.file 4 "d:\\10 2021.10\\arm-none-eabi\\include\\sys\\_stdint.h"
 1521              		.file 5 "Drivers/CMSIS/Device/ST/STM32F1xx/Include/stm32f103xb.h"
 1522              		.file 6 "Drivers/STM32F1xx_HAL_Driver/Inc/stm32f1xx_hal_def.h"
 1523              		.file 7 "Drivers/STM32F1xx_HAL_Driver/Inc/stm32f1xx_hal_rcc.h"
 1524              		.file 8 "Drivers/STM32F1xx_HAL_Driver/Inc/stm32f1xx_hal_rcc_ex.h"
 1525              		.file 9 "Drivers/STM32F1xx_HAL_Driver/Inc/stm32f1xx_hal_dma.h"
 1526              		.file 10 "Drivers/STM32F1xx_HAL_Driver/Inc/stm32f1xx_hal_tim.h"
 1527              		.file 11 "Drivers/STM32F1xx_HAL_Driver/Inc/stm32f1xx_hal_uart.h"
 1528              		.file 12 "Middlewares/Third_Party/FreeRTOS/Source/portable/GCC/ARM_CM3/portmacro.h"
 1529              		.file 13 "Middlewares/Third_Party/FreeRTOS/Source/include/FreeRTOS.h"
 1530              		.file 14 "Middlewares/Third_Party/FreeRTOS/Source/include/task.h"
 1531              		.file 15 "Middlewares/Third_Party/FreeRTOS/Source/include/queue.h"
 1532              		.file 16 "Middlewares/Third_Party/FreeRTOS/Source/include/semphr.h"
 1533              		.file 17 "Middlewares/Third_Party/FreeRTOS/Source/CMSIS_RTOS/cmsis_os.h"
 1534              		.file 18 "Drivers/STM32F1xx_HAL_Driver/Inc/stm32f1xx_hal.h"
 1535              		.file 19 "d:\\10 2021.10\\arm-none-eabi\\include\\stdio.h"
 1536              		.file 20 "d:\\10 2021.10\\arm-none-eabi\\include\\stdlib.h"
 1537              		.file 21 "d:\\10 2021.10\\arm-none-eabi\\include\\string.h"
 1538              		.file 22 "<built-in>"
ARM GAS  C:\Users\Admin\AppData\Local\Temp\cc9fDto3.s 			page 43


DEFINED SYMBOLS
                            *ABS*:00000000 main.c
C:\Users\Admin\AppData\Local\Temp\cc9fDto3.s:15     .rodata.str1.4:00000000 $d
C:\Users\Admin\AppData\Local\Temp\cc9fDto3.s:31     .text.MX_GPIO_Init:00000000 $t
C:\Users\Admin\AppData\Local\Temp\cc9fDto3.s:36     .text.MX_GPIO_Init:00000000 MX_GPIO_Init
C:\Users\Admin\AppData\Local\Temp\cc9fDto3.s:102    .text.MX_GPIO_Init:00000040 $d
C:\Users\Admin\AppData\Local\Temp\cc9fDto3.s:107    .text.log_data:00000000 $t
C:\Users\Admin\AppData\Local\Temp\cc9fDto3.s:113    .text.log_data:00000000 log_data
C:\Users\Admin\AppData\Local\Temp\cc9fDto3.s:145    .text.log_data:00000018 $d
C:\Users\Admin\AppData\Local\Temp\cc9fDto3.s:150    .rodata.Task_Sensor.str1.4:00000000 $d
C:\Users\Admin\AppData\Local\Temp\cc9fDto3.s:154    .text.Task_Sensor:00000000 $t
C:\Users\Admin\AppData\Local\Temp\cc9fDto3.s:160    .text.Task_Sensor:00000000 Task_Sensor
C:\Users\Admin\AppData\Local\Temp\cc9fDto3.s:195    .text.Task_Sensor:0000001c $d
C:\Users\Admin\AppData\Local\Temp\cc9fDto3.s:201    .rodata.Task_Servo.str1.4:00000000 $d
C:\Users\Admin\AppData\Local\Temp\cc9fDto3.s:214    .text.Task_Servo:00000000 $t
C:\Users\Admin\AppData\Local\Temp\cc9fDto3.s:220    .text.Task_Servo:00000000 Task_Servo
C:\Users\Admin\AppData\Local\Temp\cc9fDto3.s:340    .text.Task_Servo:00000090 $d
C:\Users\Admin\AppData\Local\Temp\cc9fDto3.s:355    .rodata.Task_Display.str1.4:00000000 $d
C:\Users\Admin\AppData\Local\Temp\cc9fDto3.s:374    .text.Task_Display:00000000 $t
C:\Users\Admin\AppData\Local\Temp\cc9fDto3.s:380    .text.Task_Display:00000000 Task_Display
C:\Users\Admin\AppData\Local\Temp\cc9fDto3.s:473    .text.Task_Display:00000080 $d
C:\Users\Admin\AppData\Local\Temp\cc9fDto3.s:491    .rodata.Task_Data.str1.4:00000000 $d
C:\Users\Admin\AppData\Local\Temp\cc9fDto3.s:526    .text.Task_Data:00000000 $t
C:\Users\Admin\AppData\Local\Temp\cc9fDto3.s:532    .text.Task_Data:00000000 Task_Data
C:\Users\Admin\AppData\Local\Temp\cc9fDto3.s:676    .text.Task_Data:000000bc $d
C:\Users\Admin\AppData\Local\Temp\cc9fDto3.s:699    .rodata.HAL_UART_RxCpltCallback.str1.4:00000000 $d
C:\Users\Admin\AppData\Local\Temp\cc9fDto3.s:706    .text.HAL_UART_RxCpltCallback:00000000 $t
C:\Users\Admin\AppData\Local\Temp\cc9fDto3.s:712    .text.HAL_UART_RxCpltCallback:00000000 HAL_UART_RxCpltCallback
C:\Users\Admin\AppData\Local\Temp\cc9fDto3.s:817    .text.HAL_UART_RxCpltCallback:00000060 $d
C:\Users\Admin\AppData\Local\Temp\cc9fDto3.s:829    .text.HAL_TIM_PeriodElapsedCallback:00000000 $t
C:\Users\Admin\AppData\Local\Temp\cc9fDto3.s:835    .text.HAL_TIM_PeriodElapsedCallback:00000000 HAL_TIM_PeriodElapsedCallback
C:\Users\Admin\AppData\Local\Temp\cc9fDto3.s:869    .text.HAL_TIM_PeriodElapsedCallback:00000014 $d
C:\Users\Admin\AppData\Local\Temp\cc9fDto3.s:874    .text.Error_Handler:00000000 $t
C:\Users\Admin\AppData\Local\Temp\cc9fDto3.s:880    .text.Error_Handler:00000000 Error_Handler
C:\Users\Admin\AppData\Local\Temp\cc9fDto3.s:912    .text.MX_USART3_UART_Init:00000000 $t
C:\Users\Admin\AppData\Local\Temp\cc9fDto3.s:917    .text.MX_USART3_UART_Init:00000000 MX_USART3_UART_Init
C:\Users\Admin\AppData\Local\Temp\cc9fDto3.s:972    .text.MX_USART3_UART_Init:0000002c $d
C:\Users\Admin\AppData\Local\Temp\cc9fDto3.s:978    .text.SystemClock_Config:00000000 $t
C:\Users\Admin\AppData\Local\Temp\cc9fDto3.s:984    .text.SystemClock_Config:00000000 SystemClock_Config
C:\Users\Admin\AppData\Local\Temp\cc9fDto3.s:1089   .rodata.main.str1.4:00000000 $d
C:\Users\Admin\AppData\Local\Temp\cc9fDto3.s:1093   .text.main:00000000 $t
C:\Users\Admin\AppData\Local\Temp\cc9fDto3.s:1099   .text.main:00000000 main
C:\Users\Admin\AppData\Local\Temp\cc9fDto3.s:1260   .text.main:000000fc $d
C:\Users\Admin\AppData\Local\Temp\cc9fDto3.s:1373   .bss.PC_threshold:00000000 PC_threshold
C:\Users\Admin\AppData\Local\Temp\cc9fDto3.s:1366   .bss.PC_rota:00000000 PC_rota
C:\Users\Admin\AppData\Local\Temp\cc9fDto3.s:1434   .bss.angle:00000000 angle
C:\Users\Admin\AppData\Local\Temp\cc9fDto3.s:1489   .bss.str_thres:00000000 str_thres
C:\Users\Admin\AppData\Local\Temp\cc9fDto3.s:1475   .bss.label_thres:00000000 label_thres
C:\Users\Admin\AppData\Local\Temp\cc9fDto3.s:1495   .bss.threshold:00000000 threshold
C:\Users\Admin\AppData\Local\Temp\cc9fDto3.s:1482   .bss.rota:00000000 rota
C:\Users\Admin\AppData\Local\Temp\cc9fDto3.s:1501   .data.count:00000000 count
C:\Users\Admin\AppData\Local\Temp\cc9fDto3.s:1441   .bss.buf_humi:00000000 buf_humi
C:\Users\Admin\AppData\Local\Temp\cc9fDto3.s:1454   .bss.buf_temp:00000000 buf_temp
C:\Users\Admin\AppData\Local\Temp\cc9fDto3.s:1447   .bss.buf_sensor:00000000 buf_sensor
C:\Users\Admin\AppData\Local\Temp\cc9fDto3.s:1508   .data.humi:00000000 humi
C:\Users\Admin\AppData\Local\Temp\cc9fDto3.s:1515   .data.temp:00000000 temp
C:\Users\Admin\AppData\Local\Temp\cc9fDto3.s:1386   .bss.Rx_index:00000000 Rx_index
ARM GAS  C:\Users\Admin\AppData\Local\Temp\cc9fDto3.s 			page 44


C:\Users\Admin\AppData\Local\Temp\cc9fDto3.s:1461   .bss.buffer_data:00000000 buffer_data
C:\Users\Admin\AppData\Local\Temp\cc9fDto3.s:1379   .bss.Rx_data:00000000 Rx_data
C:\Users\Admin\AppData\Local\Temp\cc9fDto3.s:1359   .bss.Mode:00000000 Mode
C:\Users\Admin\AppData\Local\Temp\cc9fDto3.s:1352   .bss.IRQSemHandle:00000000 IRQSemHandle
C:\Users\Admin\AppData\Local\Temp\cc9fDto3.s:1345   .bss.DataSemHandle:00000000 DataSemHandle
C:\Users\Admin\AppData\Local\Temp\cc9fDto3.s:1400   .bss.ServoSemHandle:00000000 ServoSemHandle
C:\Users\Admin\AppData\Local\Temp\cc9fDto3.s:1393   .bss.SensorSemHandle:00000000 SensorSemHandle
C:\Users\Admin\AppData\Local\Temp\cc9fDto3.s:1428   .bss.Task4Handle:00000000 Task4Handle
C:\Users\Admin\AppData\Local\Temp\cc9fDto3.s:1421   .bss.Task3Handle:00000000 Task3Handle
C:\Users\Admin\AppData\Local\Temp\cc9fDto3.s:1414   .bss.Task2Handle:00000000 Task2Handle
C:\Users\Admin\AppData\Local\Temp\cc9fDto3.s:1407   .bss.Task1Handle:00000000 Task1Handle
C:\Users\Admin\AppData\Local\Temp\cc9fDto3.s:1468   .bss.huart3:00000000 huart3
C:\Users\Admin\AppData\Local\Temp\cc9fDto3.s:1302   .rodata:00000000 $d
C:\Users\Admin\AppData\Local\Temp\cc9fDto3.s:1341   .bss.DataSemHandle:00000000 $d
C:\Users\Admin\AppData\Local\Temp\cc9fDto3.s:1348   .bss.IRQSemHandle:00000000 $d
C:\Users\Admin\AppData\Local\Temp\cc9fDto3.s:1355   .bss.Mode:00000000 $d
C:\Users\Admin\AppData\Local\Temp\cc9fDto3.s:1362   .bss.PC_rota:00000000 $d
C:\Users\Admin\AppData\Local\Temp\cc9fDto3.s:1369   .bss.PC_threshold:00000000 $d
C:\Users\Admin\AppData\Local\Temp\cc9fDto3.s:1380   .bss.Rx_data:00000000 $d
C:\Users\Admin\AppData\Local\Temp\cc9fDto3.s:1382   .bss.Rx_index:00000000 $d
C:\Users\Admin\AppData\Local\Temp\cc9fDto3.s:1389   .bss.SensorSemHandle:00000000 $d
C:\Users\Admin\AppData\Local\Temp\cc9fDto3.s:1396   .bss.ServoSemHandle:00000000 $d
C:\Users\Admin\AppData\Local\Temp\cc9fDto3.s:1403   .bss.Task1Handle:00000000 $d
C:\Users\Admin\AppData\Local\Temp\cc9fDto3.s:1410   .bss.Task2Handle:00000000 $d
C:\Users\Admin\AppData\Local\Temp\cc9fDto3.s:1417   .bss.Task3Handle:00000000 $d
C:\Users\Admin\AppData\Local\Temp\cc9fDto3.s:1424   .bss.Task4Handle:00000000 $d
C:\Users\Admin\AppData\Local\Temp\cc9fDto3.s:1431   .bss.angle:00000000 $d
C:\Users\Admin\AppData\Local\Temp\cc9fDto3.s:1437   .bss.buf_humi:00000000 $d
C:\Users\Admin\AppData\Local\Temp\cc9fDto3.s:1444   .bss.buf_sensor:00000000 $d
C:\Users\Admin\AppData\Local\Temp\cc9fDto3.s:1450   .bss.buf_temp:00000000 $d
C:\Users\Admin\AppData\Local\Temp\cc9fDto3.s:1457   .bss.buffer_data:00000000 $d
C:\Users\Admin\AppData\Local\Temp\cc9fDto3.s:1464   .bss.huart3:00000000 $d
C:\Users\Admin\AppData\Local\Temp\cc9fDto3.s:1471   .bss.label_thres:00000000 $d
C:\Users\Admin\AppData\Local\Temp\cc9fDto3.s:1478   .bss.rota:00000000 $d
C:\Users\Admin\AppData\Local\Temp\cc9fDto3.s:1485   .bss.str_thres:00000000 $d
C:\Users\Admin\AppData\Local\Temp\cc9fDto3.s:1492   .bss.threshold:00000000 $d
C:\Users\Admin\AppData\Local\Temp\cc9fDto3.s:1498   .data.count:00000000 $d
C:\Users\Admin\AppData\Local\Temp\cc9fDto3.s:1504   .data.humi:00000000 $d
C:\Users\Admin\AppData\Local\Temp\cc9fDto3.s:1511   .data.temp:00000000 $d

UNDEFINED SYMBOLS
strlen
HAL_UART_Transmit
osSemaphoreRelease
osDelay
__aeabi_i2d
__aeabi_ddiv
__aeabi_d2iz
osSemaphoreWait
__aeabi_ui2d
__aeabi_dmul
__aeabi_dsub
sprintf
__aeabi_d2f
sscanf
atof
strcat
ARM GAS  C:\Users\Admin\AppData\Local\Temp\cc9fDto3.s 			page 45


memset
strncmp
HAL_UART_Receive_IT
strcmp
HAL_IncTick
HAL_UART_Init
HAL_RCC_OscConfig
HAL_RCC_ClockConfig
HAL_Init
osSemaphoreCreate
osThreadCreate
osKernelStart
